(dp1
S'output'
p2
S"<type 'exceptions.NameError'> global name 'course_id' is not defined"
p3
sS'layer'
p4
S'/Users/adityagaykar/Dropbox/Development/MtechCSE/Sem1/SCE/Project/web2py/applications/edify/controllers/course.py'
p5
sS'code'
p6
S'import time\n\n@auth.requires_login()\ndef index():\n\t#list the courses available for current year for registration\n\tcourses = []\n\trows = db(db.course).select()\n\tfor row in rows:\n\t\tcourses.append([row.name, row.faculty.first_name + " " +  row.faculty.last_name, row.id])\n\treturn locals()\n\n@auth.requires_login()\ndef view():\n\tcourse_id = request.args(0)\n\trows = db(db.course.id ==course_id).select()\n\t#faculty = None\n\tif(len(rows) == 0):\n\t\tresponse.flash = "Invalid course"\n\telse:\n\t\tmessage = rows[0].name\n\t\tfaculty = rows[0].faculty.first_name + " " + rows[0].faculty.last_name\n\t\tcourse_description = rows[0].course_description\n\treturn locals()\n\n@auth.requires_login()\ndef register():\n\tcouse_id = request.args(0)\n\trows = db(db.course.id ==course_id).select()\n\t#faculty = None\n\tif(len(rows) == 0):\n\t\tresponse.flash = "Invalid course"\n\telse:\n\t\tdb.course_registration.insert(cid=course_id, sid=auth.user.id)\n\t\tmessage = rows[0].name\n\t\tfaculty = rows[0].faculty.first_name + " " + rows[0].faculty.last_name\n\t\tcourse_description = rows[0].course_description\n\t\tresponse.template = "view"\n\t\tresponse.flash = "Registered successfully"\n\treturn locals()\n\t\t\n\n\n\nresponse._vars=response._caller(register)\n'
p7
sS'snapshot'
p8
(dp9
sS'traceback'
p10
S'Traceback (most recent call last):\n  File "/Users/adityagaykar/Dropbox/Development/MtechCSE/Sem1/SCE/Project/web2py/gluon/restricted.py", line 227, in restricted\n    exec ccode in environment\n  File "/Users/adityagaykar/Dropbox/Development/MtechCSE/Sem1/SCE/Project/web2py/applications/edify/controllers/course.py", line 44, in <module>\n  File "/Users/adityagaykar/Dropbox/Development/MtechCSE/Sem1/SCE/Project/web2py/gluon/globals.py", line 412, in <lambda>\n    self._caller = lambda f: f()\n  File "/Users/adityagaykar/Dropbox/Development/MtechCSE/Sem1/SCE/Project/web2py/gluon/tools.py", line 3774, in f\n    return action(*a, **b)\n  File "/Users/adityagaykar/Dropbox/Development/MtechCSE/Sem1/SCE/Project/web2py/applications/edify/controllers/course.py", line 28, in register\n    rows = db(db.course.id ==course_id).select()\nNameError: global name \'course_id\' is not defined\n'
p11
s.