(dp1
S'output'
p2
S"<type 'exceptions.TypeError'> unsupported operand type(s) for +: 'NoneType' and 'str'"
p3
sS'layer'
p4
S'/Users/adityagaykar/Dropbox/Development/MtechCSE/Sem1/SCE/hackathon-github/web2py/applications/edify/views/course/view_student_uploads.html'
p5
sS'code'
p6
S'response.write(\'\\n\\n\\t\\t\\t\\t\\t\\t\\t\', escape=False)\nif len(rows) != 0:\n    response.write(\'\\n\\t\\t\\t\\t\\t\\t\\t\\t\\t<div class="table-responsive">\\t\\t\\t\\t\\t\\t\\t\\t\\t\\n\\t\\t\\t\\t\\t\\t\\t\\t\\t\\t<table class="table table-hover">\\n\\t\\t\\t\\t\\t\\t\\t\\t\\t\\t\\t<tr>\\n\\t\\t\\t\\t\\t\\t\\t\\t\\t\\t\\t\\t<th>Sr no</th>\\n\\t\\t\\t\\t\\t\\t\\t\\t\\t\\t\\t\\t<th>Name</th>\\n\\t\\t\\t\\t\\t\\t\\t\\t\\t\\t\\t\\t<th>Marks</th>\\n\\t\\t\\t\\t\\t\\t\\t\\t\\t\\t\\t\\t<th>File</th>\\n\\t\\t\\t\\t\\t\\t\\t\\t\\t\\t\\t</tr>\\t\\n\\t\\t\\t\\t\\t\\t\\t\\t\\t\', escape=False)\n    i =  1\n    response.write(\'\\t\\t\\t\\n\\t\\t\\t\\t\\t\\t\\t\\t\\t\', escape=False)\n    names = []\n    response.write(\'\\t\\t\\t\\t\\t\\n\\t\\t\\t\\t\\t\\t\\t\\t\\t\', escape=False)\n    for row in rows:\n        response.write(\'\\n\\t\\t\\t\\t\\t\\t\\t\\t\\t\\t<tr class="success">\\n\\t\\t\\t\\t\\t\\t\\t\\t\\t\\t\\t<td>\', escape=False)\n        response.write(i)\n        response.write(\'</td>\\n\\t\\t\\t\\t\\t\\t\\t\\t\\t\\t\\t<td>\', escape=False)\n        response.write(row.course_assignment_upload.sid.first_name)\n        response.write(\' \', escape=False)\n        response.write(row.course_assignment_upload.sid.last_name)\n        response.write(\'</td>\\n\\t\\t\\t\\t\\t\\t\\t\\t\\t\\t\\t\', escape=False)\n        if row.course_assignment_upload.marks:\n            response.write(\'\\n\\t\\t\\t\\t\\t\\t\\t\\t\\t\\t\\t<td><input type="text" value="\', escape=False)\n            response.write(row.course_assignment_upload.marks)\n            response.write(\'" name="\', escape=False)\n            response.write(row.course_assignment_upload.id)\n            response.write(\'" required/></td>\\n\\t\\t\\t\\t\\t\\t\\t\\t\\t\\t\\t\', escape=False)\n        else:\n            response.write(\'\\n\\t\\t\\t\\t\\t\\t\\t\\t\\t\\t\\t<td><input type="text" value="0" name="\', escape=False)\n            response.write(row.course_assignment_upload.id)\n            response.write(\'" required/></td>\\n\\t\\t\\t\\t\\t\\t\\t\\t\\t\\t\\t\', escape=False)\n            pass\n        response.write(\'\\n\\t\\t\\t\\t\\t\\t\\t\\t\\t\\t\\t<td><a href="\', escape=False)\n        response.write(URL(\'default\',\'download/\'+row.course_assignment_upload.attachment))\n        response.write(\'"><div class="glyphicon glyphicon-download"></div></a></td>\\t\\t\\n\\t\\t\\t\\t\\t\\t\\t\\t\\t\\t\\t\', escape=False)\n        names.append(\'"\'+str(row.course_assignment_upload.id))+\'"\'\n        response.write(\'\\n\\t\\t\\t\\t\\t\\t\\t\\t\\t\\t</tr>\\t\\n\\t\\t\\t\\t\\t\\t\\t\\t\\t\\t\', escape=False)\n        i = i + 1\n        response.write(\'\\t\\t\\t\\t\\t\\t\\t\\t\\t\\n\\t\\t\\t\\t\\t\\t\\t\\t\\t\', escape=False)\n        pass\n    response.write(\'\\n\\t\\t\\t\\t\\t\\t\\t\\t\\t\\t<tr>\\n\\t\\t\\t\\t\\t\\t\\t\\t\\t\\t\\t<td colspan="4" class="center">\\n\\t\\t\\t\\t\\t\\t\\t\\t\\t\\t\\t\\t<a href="#" onclick=\\\'ajax("\', escape=False)\n    response.write(URL("course","update_assignment_marks"))\n    response.write(\'", \', escape=False)\n    response.write(names)\n    response.write(\', ":eval")\\\' class="btn btn-success">Update</a>\\n\\t\\t\\t\\t\\t\\t\\t\\t\\t\\t\\t</td>\\n\\t\\t\\t\\t\\t\\t\\t\\t\\t\\t</tr>\\n\\t\\t\\t\\t\\t\\t\\t\\t\\t\\t</table>\\n\\t\\t\\t\\t\\t\\t\\t\\t\\t</div>\\n\\t\\t\\t\\t\\t\\t\\t\\t\', escape=False)\nelse:\n    response.write(\'\\n\\t\\t\\t\\t\\t\\t\\t\\t\\t<p class="list-group-item">No uploads yet</p>\\n\\t\\t\\t\\t\\t\\t\\t\\t\', escape=False)\n    pass\nresponse.write(\'\\n\', escape=False)'
p7
sS'snapshot'
p8
(dp9
S'exception'
p10
(dp11
S'__hash__'
p12
S"<method-wrapper '__hash__' of exceptions.TypeError object>"
p13
sS'__setattr__'
p14
S"<method-wrapper '__setattr__' of exceptions.TypeError object>"
p15
sS'__reduce_ex__'
p16
S'<built-in method __reduce_ex__ of exceptions.TypeError object>'
p17
sS'__getslice__'
p18
S"<method-wrapper '__getslice__' of exceptions.TypeError object>"
p19
sS'__getitem__'
p20
S"<method-wrapper '__getitem__' of exceptions.TypeError object>"
p21
sS'__setstate__'
p22
S'<built-in method __setstate__ of exceptions.TypeError object>'
p23
sS'args'
p24
S'("unsupported operand type(s) for +: \'NoneType\' and \'str\'",)'
p25
sS'__reduce__'
p26
S'<built-in method __reduce__ of exceptions.TypeError object>'
p27
sS'__str__'
p28
S"<method-wrapper '__str__' of exceptions.TypeError object>"
p29
sS'__format__'
p30
S'<built-in method __format__ of exceptions.TypeError object>'
p31
sS'__getattribute__'
p32
S"<method-wrapper '__getattribute__' of exceptions.TypeError object>"
p33
sS'__class__'
p34
S"<type 'exceptions.TypeError'>"
p35
sS'__unicode__'
p36
S'<built-in method __unicode__ of exceptions.TypeError object>'
p37
sS'__delattr__'
p38
S"<method-wrapper '__delattr__' of exceptions.TypeError object>"
p39
sS'__subclasshook__'
p40
S'<built-in method __subclasshook__ of type object>'
p41
sS'__repr__'
p42
S"<method-wrapper '__repr__' of exceptions.TypeError object>"
p43
sS'__dict__'
p44
S'{}'
p45
sS'__sizeof__'
p46
S'<built-in method __sizeof__ of exceptions.TypeError object>'
p47
sS'__doc__'
p48
S"'Inappropriate argument type.'"
p49
sS'__init__'
p50
S"<method-wrapper '__init__' of exceptions.TypeError object>"
p51
sS'__new__'
p52
S'<built-in method __new__ of type object>'
p53
ssS'evalue'
p54
S"unsupported operand type(s) for +: 'NoneType' and 'str'"
p55
sS'request'
p56
cgluon.html
XML_unpickle
p57
(S's:m\x00\x00<div><table><tr><td style="font-weight:bold;vertical-align:top;">ajax</td><td style="vertical-align:top;">:</td><td><div>True</div></td></tr><tr><td style="font-weight:bold;vertical-align:top;">application</td><td style="vertical-align:top;">:</td><td><div>edify</div></td></tr><tr><td style="font-weight:bold;vertical-align:top;">args</td><td style="vertical-align:top;">:</td><td><div><table></table></div></td></tr><tr><td style="font-weight:bold;vertical-align:top;">cid</td><td style="vertical-align:top;">:</td><td><div>None</div></td></tr><tr><td style="font-weight:bold;vertical-align:top;">client</td><td style="vertical-align:top;">:</td><td><div>127.0.0.1</div></td></tr><tr><td style="font-weight:bold;vertical-align:top;">controller</td><td style="vertical-align:top;">:</td><td><div>course</div></td></tr><tr><td style="font-weight:bold;vertical-align:top;">cookies</td><td style="vertical-align:top;">:</td><td><div><table><tr><td style="font-weight:bold;vertical-align:top;">session_id_admin</td><td style="vertical-align:top;">:</td><td><div>127.0.0.1-beff7b5d-47b8-4d5f-b5b5-fa1b56942bdf<table><tr><td style="font-weight:bold;vertical-align:top;">comment</td><td style="vertical-align:top;">:</td><td><div></div></td></tr><tr><td style="font-weight:bold;vertical-align:top;">domain</td><td style="vertical-align:top;">:</td><td><div></div></td></tr><tr><td style="font-weight:bold;vertical-align:top;">expires</td><td style="vertical-align:top;">:</td><td><div></div></td></tr><tr><td style="font-weight:bold;vertical-align:top;">httponly</td><td style="vertical-align:top;">:</td><td><div></div></td></tr><tr><td style="font-weight:bold;vertical-align:top;">max-age</td><td style="vertical-align:top;">:</td><td><div></div></td></tr><tr><td style="font-weight:bold;vertical-align:top;">path</td><td style="vertical-align:top;">:</td><td><div></div></td></tr><tr><td style="font-weight:bold;vertical-align:top;">secure</td><td style="vertical-align:top;">:</td><td><div></div></td></tr><tr><td style="font-weight:bold;vertical-align:top;">version</td><td style="vertical-align:top;">:</td><td><div></div></td></tr></table></div></td></tr><tr><td style="font-weight:bold;vertical-align:top;">session_id_edify</td><td style="vertical-align:top;">:</td><td><div>127.0.0.1-0a73c8e2-622f-4edc-aba1-38e7d5ce3d48<table><tr><td style="font-weight:bold;vertical-align:top;">comment</td><td style="vertical-align:top;">:</td><td><div></div></td></tr><tr><td style="font-weight:bold;vertical-align:top;">domain</td><td style="vertical-align:top;">:</td><td><div></div></td></tr><tr><td style="font-weight:bold;vertical-align:top;">expires</td><td style="vertical-align:top;">:</td><td><div></div></td></tr><tr><td style="font-weight:bold;vertical-align:top;">httponly</td><td style="vertical-align:top;">:</td><td><div></div></td></tr><tr><td style="font-weight:bold;vertical-align:top;">max-age</td><td style="vertical-align:top;">:</td><td><div></div></td></tr><tr><td style="font-weight:bold;vertical-align:top;">path</td><td style="vertical-align:top;">:</td><td><div></div></td></tr><tr><td style="font-weight:bold;vertical-align:top;">secure</td><td style="vertical-align:top;">:</td><td><div></div></td></tr><tr><td style="font-weight:bold;vertical-align:top;">version</td><td style="vertical-align:top;">:</td><td><div></div></td></tr></table></div></td></tr><tr><td style="font-weight:bold;vertical-align:top;">session_id_test</td><td style="vertical-align:top;">:</td><td><div>127.0.0.1-d836bea8-bf01-4fd7-8cd0-a3a625998928<table><tr><td style="font-weight:bold;vertical-align:top;">comment</td><td style="vertical-align:top;">:</td><td><div></div></td></tr><tr><td style="font-weight:bold;vertical-align:top;">domain</td><td style="vertical-align:top;">:</td><td><div></div></td></tr><tr><td style="font-weight:bold;vertical-align:top;">expires</td><td style="vertical-align:top;">:</td><td><div></div></td></tr><tr><td style="font-weight:bold;vertical-align:top;">httponly</td><td style="vertical-align:top;">:</td><td><div></div></td></tr><tr><td style="font-weight:bold;vertical-align:top;">max-age</td><td style="vertical-align:top;">:</td><td><div></div></td></tr><tr><td style="font-weight:bold;vertical-align:top;">path</td><td style="vertical-align:top;">:</td><td><div></div></td></tr><tr><td style="font-weight:bold;vertical-align:top;">secure</td><td style="vertical-align:top;">:</td><td><div></div></td></tr><tr><td style="font-weight:bold;vertical-align:top;">version</td><td style="vertical-align:top;">:</td><td><div></div></td></tr></table></div></td></tr><tr><td style="font-weight:bold;vertical-align:top;">session_id_welcome</td><td style="vertical-align:top;">:</td><td><div>127.0.0.1-c58543cd-5765-4845-a436-2736593100e9<table><tr><td style="font-weight:bold;vertical-align:top;">comment</td><td style="vertical-align:top;">:</td><td><div></div></td></tr><tr><td style="font-weight:bold;vertical-align:top;">domain</td><td style="vertical-align:top;">:</td><td><div></div></td></tr><tr><td style="font-weight:bold;vertical-align:top;">expires</td><td style="vertical-align:top;">:</td><td><div></div></td></tr><tr><td style="font-weight:bold;vertical-align:top;">httponly</td><td style="vertical-align:top;">:</td><td><div></div></td></tr><tr><td style="font-weight:bold;vertical-align:top;">max-age</td><td style="vertical-align:top;">:</td><td><div></div></td></tr><tr><td style="font-weight:bold;vertical-align:top;">path</td><td style="vertical-align:top;">:</td><td><div></div></td></tr><tr><td style="font-weight:bold;vertical-align:top;">secure</td><td style="vertical-align:top;">:</td><td><div></div></td></tr><tr><td style="font-weight:bold;vertical-align:top;">version</td><td style="vertical-align:top;">:</td><td><div></div></td></tr></table></div></td></tr></table></div></td></tr><tr><td style="font-weight:bold;vertical-align:top;">env</td><td style="vertical-align:top;">:</td><td><div><table><tr><td style="font-weight:bold;vertical-align:top;">CONTENT_LENGTH</td><td style="vertical-align:top;">:</td><td><div>22</div></td></tr><tr><td style="font-weight:bold;vertical-align:top;">CONTENT_TYPE</td><td style="vertical-align:top;">:</td><td><div>application/x-www-form-urlencoded; charset=UTF-8</div></td></tr><tr><td style="font-weight:bold;vertical-align:top;">HTTP_ACCEPT</td><td style="vertical-align:top;">:</td><td><div>*/*</div></td></tr><tr><td style="font-weight:bold;vertical-align:top;">HTTP_ACCEPT_ENCODING</td><td style="vertical-align:top;">:</td><td><div>gzip, deflate</div></td></tr><tr><td style="font-weight:bold;vertical-align:top;">HTTP_ACCEPT_LANGUAGE</td><td style="vertical-align:top;">:</td><td><div>en,en-US;q=0.8,en-GB;q=0.6</div></td></tr><tr><td style="font-weight:bold;vertical-align:top;">HTTP_CONNECTION</td><td style="vertical-align:top;">:</td><td><div>keep-alive</div></td></tr><tr><td style="font-weight:bold;vertical-align:top;">HTTP_CONTENT_LENGTH</td><td style="vertical-align:top;">:</td><td><div>22</div></td></tr><tr><td style="font-weight:bold;vertical-align:top;">HTTP_CONTENT_TYPE</td><td style="vertical-align:top;">:</td><td><div>application/x-www-form-urlencoded; charset=UTF-8</div></td></tr><tr><td style="font-weight:bold;vertical-align:top;">HTTP_COOKIE</td><td style="vertical-align:top;">:</td><td><div>session_id_welcome=127.0.0.1-c58543cd-5765-4845-a436-2736593100e9; session_id_test=127.0.0.1-d836bea8-bf01-4fd7-8cd0-a3a625998928; session_id_admin=127.0.0.1-beff7b5d-47b8-4d5f-b5b5-fa1b56942bdf; session_id_edify=127.0.0.1-0a73c8e2-622f-4edc-aba1-38e7d5ce3d48</div></td></tr><tr><td style="font-weight:bold;vertical-align:top;">HTTP_HOST</td><td style="vertical-align:top;">:</td><td><div>localhost:8000</div></td></tr><tr><td style="font-weight:bold;vertical-align:top;">HTTP_ORIGIN</td><td style="vertical-align:top;">:</td><td><div>http://localhost:8000</div></td></tr><tr><td style="font-weight:bold;vertical-align:top;">HTTP_REFERER</td><td style="vertical-align:top;">:</td><td><div>http://localhost:8000/edify/course/main/52</div></td></tr><tr><td style="font-weight:bold;vertical-align:top;">HTTP_USER_AGENT</td><td style="vertical-align:top;">:</td><td><div>Mozilla/5.0 (Macintosh; Intel Mac OS X 10_11_0) AppleWebKit/537.36 (KHTML, like Gecko) Chrome/46.0.2490.86 Safari/537.36</div></td></tr><tr><td style="font-weight:bold;vertical-align:top;">HTTP_X_REQUESTED_WITH</td><td style="vertical-align:top;">:</td><td><div>XMLHttpRequest</div></td></tr><tr><td style="font-weight:bold;vertical-align:top;">PATH_INFO</td><td style="vertical-align:top;">:</td><td><div>/edify/course/view_student_uploads</div></td></tr><tr><td style="font-weight:bold;vertical-align:top;">QUERY_STRING</td><td style="vertical-align:top;">:</td><td><div></div></td></tr><tr><td style="font-weight:bold;vertical-align:top;">REMOTE_ADDR</td><td style="vertical-align:top;">:</td><td><div>127.0.0.1</div></td></tr><tr><td style="font-weight:bold;vertical-align:top;">REMOTE_PORT</td><td style="vertical-align:top;">:</td><td><div>62054</div></td></tr><tr><td style="font-weight:bold;vertical-align:top;">REQUEST_METHOD</td><td style="vertical-align:top;">:</td><td><div>POST</div></td></tr><tr><td style="font-weight:bold;vertical-align:top;">SCRIPT_NAME</td><td style="vertical-align:top;">:</td><td><div></div></td></tr><tr><td style="font-weight:bold;vertical-align:top;">SERVER_NAME</td><td style="vertical-align:top;">:</td><td><div>Aditya-Gaykars-MacBook-Pro.local</div></td></tr><tr><td style="font-weight:bold;vertical-align:top;">SERVER_PORT</td><td style="vertical-align:top;">:</td><td><div>8000</div></td></tr><tr><td style="font-weight:bold;vertical-align:top;">SERVER_PROTOCOL</td><td style="vertical-align:top;">:</td><td><div>HTTP/1.1</div></td></tr><tr><td style="font-weight:bold;vertical-align:top;">SERVER_SOFTWARE</td><td style="vertical-align:top;">:</td><td><div>Rocket 1.2.6</div></td></tr><tr><td style="font-weight:bold;vertical-align:top;">app_folders</td><td style="vertical-align:top;">:</td><td><div>set([&#x27;/Users/adityagaykar/Dropbox/Development/MtechCSE/Sem1/SCE/hackathon-github/web2py/applications/admin/&#x27;, &#x27;/Users/adityagaykar/Dropbox/Development/MtechCSE/Sem1/SCE/hackathon-github/web2py/applications/welcome/&#x27;, &#x27;/Users/adityagaykar/Dropbox/Development/MtechCSE/Sem1/SCE/hackathon-github/web2py/applications/Test/&#x27;, &#x27;/Users/adityagaykar/Dropbox/Development/MtechCSE/Sem1/SCE/hackathon-github/web2py/applications/edify/&#x27;])</div></td></tr><tr><td style="font-weight:bold;vertical-align:top;">applications_parent</td><td style="vertical-align:top;">:</td><td><div>/Users/adityagaykar/Dropbox/Development/MtechCSE/Sem1/SCE/hackathon-github/web2py</div></td></tr><tr><td style="font-weight:bold;vertical-align:top;">cmd_args</td><td style="vertical-align:top;">:</td><td><div><table><tr><td><div>p</div></td></tr><tr><td><div>8000</div></td></tr></table></div></td></tr><tr><td style="font-weight:bold;vertical-align:top;">cmd_options</td><td style="vertical-align:top;">:</td><td><div>&lt;Values at 0x1041e9488: {&#x27;verbose&#x27;: False, &#x27;ip&#x27;: &#x27;127.0.0.1&#x27;, &#x27;debuglevel&#x27;: 30, &#x27;with_scheduler&#x27;: False, &#x27;ips&#x27;: [&#x27;fe80::ca2a:14ff:fe04:5c0a%en0&#x27;, &#x27;10.1.131.147&#x27;], &#x27;shutdown_timeout&#x27;: 5, &#x27;taskbar&#x27;: False, &#x27;with_coverage&#x27;: False, &#x27;scheduler_groups&#x27;: None, &#x27;port&#x27;: 8000, &#x27;maxthreads&#x27;: None, &#x27;softcron&#x27;: False, &#x27;server_name&#x27;: &#x27;127.0.0.1&#x27;, &#x27;bpython&#x27;: False, &#x27;nogui&#x27;: False, &#x27;pid_filename&#x27;: &#x27;httpserver.pid&#x27;, &#x27;print_errors&#x27;: False, &#x27;extcron&#x27;: False, &#x27;runcron&#x27;: False, &#x27;run_system_tests&#x27;: False, &#x27;test&#x27;: None, &#x27;folder&#x27;: &#x27;/Users/adityagaykar/Dropbox/Development/MtechCSE/Sem1/SCE/hackathon-github/web2py&#x27;, &#x27;config&#x27;: &#x27;&#x27;, &#x27;minthreads&#x27;: None, &#x27;shell&#x27;: None, &#x27;run&#x27;: &#x27;&#x27;, &#x27;log_filename&#x27;: &#x27;httpserver.log&#x27;, &#x27;profiler_dir&#x27;: None, &#x27;args&#x27;: [&#x27;&#x27;], &#x27;socket_timeout&#x27;: 5, &#x27;ssl_ca_certificate&#x27;: None, &#x27;scheduler&#x27;: None, &#x27;interfaces&#x27;: None, &#x27;ssl_private_key&#x27;: &#x27;&#x27;, &#x27;gae&#x27;: None, &#x27;password&#x27;: &#x27;test&#x27;, &#x27;request_queue_size&#x27;: 5, &#x27;ssl_certificate&#x27;: &#x27;&#x27;, &#x27;cronjob&#x27;: False, &#x27;numthreads&#x27;: None, &#x27;quiet&#x27;: False, &#x27;import_models&#x27;: False, &#x27;timeout&#x27;: 10, &#x27;plain&#x27;: False, &#x27;nobanner&#x27;: False}&gt;</div></td></tr><tr><td style="font-weight:bold;vertical-align:top;">content_length</td><td style="vertical-align:top;">:</td><td><div>22</div></td></tr><tr><td style="font-weight:bold;vertical-align:top;">content_type</td><td style="vertical-align:top;">:</td><td><div>application/x-www-form-urlencoded; charset=UTF-8</div></td></tr><tr><td style="font-weight:bold;vertical-align:top;">db_sessions</td><td style="vertical-align:top;">:</td><td><div>set([])</div></td></tr><tr><td style="font-weight:bold;vertical-align:top;">debugging</td><td style="vertical-align:top;">:</td><td><div>True</div></td></tr><tr><td style="font-weight:bold;vertical-align:top;">gluon_parent</td><td style="vertical-align:top;">:</td><td><div>/Users/adityagaykar/Dropbox/Development/MtechCSE/Sem1/SCE/hackathon-github/web2py</div></td></tr><tr><td style="font-weight:bold;vertical-align:top;">http_accept</td><td style="vertical-align:top;">:</td><td><div>*/*</div></td></tr><tr><td style="font-weight:bold;vertical-align:top;">http_accept_encoding</td><td style="vertical-align:top;">:</td><td><div>gzip, deflate</div></td></tr><tr><td style="font-weight:bold;vertical-align:top;">http_accept_language</td><td style="vertical-align:top;">:</td><td><div>en,en-US;q=0.8,en-GB;q=0.6</div></td></tr><tr><td style="font-weight:bold;vertical-align:top;">http_connection</td><td style="vertical-align:top;">:</td><td><div>keep-alive</div></td></tr><tr><td style="font-weight:bold;vertical-align:top;">http_content_length</td><td style="vertical-align:top;">:</td><td><div>22</div></td></tr><tr><td style="font-weight:bold;vertical-align:top;">http_content_type</td><td style="vertical-align:top;">:</td><td><div>application/x-www-form-urlencoded; charset=UTF-8</div></td></tr><tr><td style="font-weight:bold;vertical-align:top;">http_cookie</td><td style="vertical-align:top;">:</td><td><div>session_id_welcome=127.0.0.1-c58543cd-5765-4845-a436-2736593100e9; session_id_test=127.0.0.1-d836bea8-bf01-4fd7-8cd0-a3a625998928; session_id_admin=127.0.0.1-beff7b5d-47b8-4d5f-b5b5-fa1b56942bdf; session_id_edify=127.0.0.1-0a73c8e2-622f-4edc-aba1-38e7d5ce3d48</div></td></tr><tr><td style="font-weight:bold;vertical-align:top;">http_host</td><td style="vertical-align:top;">:</td><td><div>localhost:8000</div></td></tr><tr><td style="font-weight:bold;vertical-align:top;">http_origin</td><td style="vertical-align:top;">:</td><td><div>http://localhost:8000</div></td></tr><tr><td style="font-weight:bold;vertical-align:top;">http_referer</td><td style="vertical-align:top;">:</td><td><div>http://localhost:8000/edify/course/main/52</div></td></tr><tr><td style="font-weight:bold;vertical-align:top;">http_user_agent</td><td style="vertical-align:top;">:</td><td><div>Mozilla/5.0 (Macintosh; Intel Mac OS X 10_11_0) AppleWebKit/537.36 (KHTML, like Gecko) Chrome/46.0.2490.86 Safari/537.36</div></td></tr><tr><td style="font-weight:bold;vertical-align:top;">http_x_requested_with</td><td style="vertical-align:top;">:</td><td><div>XMLHttpRequest</div></td></tr><tr><td style="font-weight:bold;vertical-align:top;">is_jython</td><td style="vertical-align:top;">:</td><td><div>False</div></td></tr><tr><td style="font-weight:bold;vertical-align:top;">is_pypy</td><td style="vertical-align:top;">:</td><td><div>False</div></td></tr><tr><td style="font-weight:bold;vertical-align:top;">is_source</td><td style="vertical-align:top;">:</td><td><div>True</div></td></tr><tr><td style="font-weight:bold;vertical-align:top;">local_hosts</td><td style="vertical-align:top;">:</td><td><div><table><tr><td><div>fe80::ca2a:14ff:fe04:5c0a%en0</div></td></tr><tr><td><div>10.1.131.147</div></td></tr><tr><td><div>::ffff:127.0.0.1</div></td></tr><tr><td><div>::1</div></td></tr><tr><td><div>aditya-gaykars-macbook-pro.local</div></td></tr><tr><td><div>127.0.0.1</div></td></tr><tr><td><div>Aditya-Gaykars-MacBook-Pro.local</div></td></tr></table></div></td></tr><tr><td style="font-weight:bold;vertical-align:top;">path_info</td><td style="vertical-align:top;">:</td><td><div>/edify/course/view_student_uploads</div></td></tr><tr><td style="font-weight:bold;vertical-align:top;">query_string</td><td style="vertical-align:top;">:</td><td><div></div></td></tr><tr><td style="font-weight:bold;vertical-align:top;">remote_addr</td><td style="vertical-align:top;">:</td><td><div>127.0.0.1</div></td></tr><tr><td style="font-weight:bold;vertical-align:top;">remote_port</td><td style="vertical-align:top;">:</td><td><div>62054</div></td></tr><tr><td style="font-weight:bold;vertical-align:top;">request_method</td><td style="vertical-align:top;">:</td><td><div>POST</div></td></tr><tr><td style="font-weight:bold;vertical-align:top;">request_uri</td><td style="vertical-align:top;">:</td><td><div>/edify/course/view_student_uploads</div></td></tr><tr><td style="font-weight:bold;vertical-align:top;">script_name</td><td style="vertical-align:top;">:</td><td><div></div></td></tr><tr><td style="font-weight:bold;vertical-align:top;">server_name</td><td style="vertical-align:top;">:</td><td><div>Aditya-Gaykars-MacBook-Pro.local</div></td></tr><tr><td style="font-weight:bold;vertical-align:top;">server_port</td><td style="vertical-align:top;">:</td><td><div>8000</div></td></tr><tr><td style="font-weight:bold;vertical-align:top;">server_protocol</td><td style="vertical-align:top;">:</td><td><div>HTTP/1.1</div></td></tr><tr><td style="font-weight:bold;vertical-align:top;">server_software</td><td style="vertical-align:top;">:</td><td><div>Rocket 1.2.6</div></td></tr><tr><td style="font-weight:bold;vertical-align:top;">web2py_path</td><td style="vertical-align:top;">:</td><td><div>/Users/adityagaykar/Dropbox/Development/MtechCSE/Sem1/SCE/hackathon-github/web2py</div></td></tr><tr><td style="font-weight:bold;vertical-align:top;">web2py_version</td><td style="vertical-align:top;">:</td><td><div>2.12.3-stable+timestamp.2015.08.19.00.18.03</div></td></tr><tr><td style="font-weight:bold;vertical-align:top;">wsgi.errors</td><td style="vertical-align:top;">:</td><td><div>&lt;open file &#x27;&lt;stderr&gt;&#x27;, mode &#x27;w&#x27; at 0x10028e1e0&gt;</div></td></tr><tr><td style="font-weight:bold;vertical-align:top;">wsgi.file_wrapper</td><td style="vertical-align:top;">:</td><td><div>&lt;class wsgiref.util.FileWrapper at 0x103ec1120&gt;</div></td></tr><tr><td style="font-weight:bold;vertical-align:top;">wsgi.input</td><td style="vertical-align:top;">:</td><td><div>&lt;socket._fileobject object at 0x107604850&gt;</div></td></tr><tr><td style="font-weight:bold;vertical-align:top;">wsgi.multiprocess</td><td style="vertical-align:top;">:</td><td><div>False</div></td></tr><tr><td style="font-weight:bold;vertical-align:top;">wsgi.multithread</td><td style="vertical-align:top;">:</td><td><div>True</div></td></tr><tr><td style="font-weight:bold;vertical-align:top;">wsgi.run_once</td><td style="vertical-align:top;">:</td><td><div>False</div></td></tr><tr><td style="font-weight:bold;vertical-align:top;">wsgi.url_scheme</td><td style="vertical-align:top;">:</td><td><div>http</div></td></tr><tr><td style="font-weight:bold;vertical-align:top;">wsgi.version</td><td style="vertical-align:top;">:</td><td><div><table><tr><td><div>1</div></td></tr><tr><td><div>0</div></td></tr></table></div></td></tr><tr><td style="font-weight:bold;vertical-align:top;">wsgi_errors</td><td style="vertical-align:top;">:</td><td><div>&lt;open file &#x27;&lt;stderr&gt;&#x27;, mode &#x27;w&#x27; at 0x10028e1e0&gt;</div></td></tr><tr><td style="font-weight:bold;vertical-align:top;">wsgi_file_wrapper</td><td style="vertical-align:top;">:</td><td><div>&lt;class wsgiref.util.FileWrapper at 0x103ec1120&gt;</div></td></tr><tr><td style="font-weight:bold;vertical-align:top;">wsgi_input</td><td style="vertical-align:top;">:</td><td><div>&lt;socket._fileobject object at 0x107604850&gt;</div></td></tr><tr><td style="font-weight:bold;vertical-align:top;">wsgi_multiprocess</td><td style="vertical-align:top;">:</td><td><div>False</div></td></tr><tr><td style="font-weight:bold;vertical-align:top;">wsgi_multithread</td><td style="vertical-align:top;">:</td><td><div>True</div></td></tr><tr><td style="font-weight:bold;vertical-align:top;">wsgi_run_once</td><td style="vertical-align:top;">:</td><td><div>False</div></td></tr><tr><td style="font-weight:bold;vertical-align:top;">wsgi_url_scheme</td><td style="vertical-align:top;">:</td><td><div>http</div></td></tr><tr><td style="font-weight:bold;vertical-align:top;">wsgi_version</td><td style="vertical-align:top;">:</td><td><div><table><tr><td><div>1</div></td></tr><tr><td><div>0</div></td></tr></table></div></td></tr></table></div></td></tr><tr><td style="font-weight:bold;vertical-align:top;">extension</td><td style="vertical-align:top;">:</td><td><div>html</div></td></tr><tr><td style="font-weight:bold;vertical-align:top;">folder</td><td style="vertical-align:top;">:</td><td><div>/Users/adityagaykar/Dropbox/Development/MtechCSE/Sem1/SCE/hackathon-github/web2py/applications/edify/</div></td></tr><tr><td style="font-weight:bold;vertical-align:top;">function</td><td style="vertical-align:top;">:</td><td><div>view_student_uploads</div></td></tr><tr><td style="font-weight:bold;vertical-align:top;">global_settings</td><td style="vertical-align:top;">:</td><td><div><table><tr><td style="font-weight:bold;vertical-align:top;">app_folders</td><td style="vertical-align:top;">:</td><td><div>set([&#x27;/Users/adityagaykar/Dropbox/Development/MtechCSE/Sem1/SCE/hackathon-github/web2py/applications/admin/&#x27;, &#x27;/Users/adityagaykar/Dropbox/Development/MtechCSE/Sem1/SCE/hackathon-github/web2py/applications/welcome/&#x27;, &#x27;/Users/adityagaykar/Dropbox/Development/MtechCSE/Sem1/SCE/hackathon-github/web2py/applications/Test/&#x27;, &#x27;/Users/adityagaykar/Dropbox/Development/MtechCSE/Sem1/SCE/hackathon-github/web2py/applications/edify/&#x27;])</div></td></tr><tr><td style="font-weight:bold;vertical-align:top;">applications_parent</td><td style="vertical-align:top;">:</td><td><div>/Users/adityagaykar/Dropbox/Development/MtechCSE/Sem1/SCE/hackathon-github/web2py</div></td></tr><tr><td style="font-weight:bold;vertical-align:top;">cmd_args</td><td style="vertical-align:top;">:</td><td><div><table><tr><td><div>p</div></td></tr><tr><td><div>8000</div></td></tr></table></div></td></tr><tr><td style="font-weight:bold;vertical-align:top;">cmd_options</td><td style="vertical-align:top;">:</td><td><div>&lt;Values at 0x1041e9488: {&#x27;verbose&#x27;: False, &#x27;ip&#x27;: &#x27;127.0.0.1&#x27;, &#x27;debuglevel&#x27;: 30, &#x27;with_scheduler&#x27;: False, &#x27;ips&#x27;: [&#x27;fe80::ca2a:14ff:fe04:5c0a%en0&#x27;, &#x27;10.1.131.147&#x27;], &#x27;shutdown_timeout&#x27;: 5, &#x27;taskbar&#x27;: False, &#x27;with_coverage&#x27;: False, &#x27;scheduler_groups&#x27;: None, &#x27;port&#x27;: 8000, &#x27;maxthreads&#x27;: None, &#x27;softcron&#x27;: False, &#x27;server_name&#x27;: &#x27;127.0.0.1&#x27;, &#x27;bpython&#x27;: False, &#x27;nogui&#x27;: False, &#x27;pid_filename&#x27;: &#x27;httpserver.pid&#x27;, &#x27;print_errors&#x27;: False, &#x27;extcron&#x27;: False, &#x27;runcron&#x27;: False, &#x27;run_system_tests&#x27;: False, &#x27;test&#x27;: None, &#x27;folder&#x27;: &#x27;/Users/adityagaykar/Dropbox/Development/MtechCSE/Sem1/SCE/hackathon-github/web2py&#x27;, &#x27;config&#x27;: &#x27;&#x27;, &#x27;minthreads&#x27;: None, &#x27;shell&#x27;: None, &#x27;run&#x27;: &#x27;&#x27;, &#x27;log_filename&#x27;: &#x27;httpserver.log&#x27;, &#x27;profiler_dir&#x27;: None, &#x27;args&#x27;: [&#x27;&#x27;], &#x27;socket_timeout&#x27;: 5, &#x27;ssl_ca_certificate&#x27;: None, &#x27;scheduler&#x27;: None, &#x27;interfaces&#x27;: None, &#x27;ssl_private_key&#x27;: &#x27;&#x27;, &#x27;gae&#x27;: None, &#x27;password&#x27;: &#x27;test&#x27;, &#x27;request_queue_size&#x27;: 5, &#x27;ssl_certificate&#x27;: &#x27;&#x27;, &#x27;cronjob&#x27;: False, &#x27;numthreads&#x27;: None, &#x27;quiet&#x27;: False, &#x27;import_models&#x27;: False, &#x27;timeout&#x27;: 10, &#x27;plain&#x27;: False, &#x27;nobanner&#x27;: False}&gt;</div></td></tr><tr><td style="font-weight:bold;vertical-align:top;">db_sessions</td><td style="vertical-align:top;">:</td><td><div>set([])</div></td></tr><tr><td style="font-weight:bold;vertical-align:top;">debugging</td><td style="vertical-align:top;">:</td><td><div>True</div></td></tr><tr><td style="font-weight:bold;vertical-align:top;">gluon_parent</td><td style="vertical-align:top;">:</td><td><div>/Users/adityagaykar/Dropbox/Development/MtechCSE/Sem1/SCE/hackathon-github/web2py</div></td></tr><tr><td style="font-weight:bold;vertical-align:top;">is_jython</td><td style="vertical-align:top;">:</td><td><div>False</div></td></tr><tr><td style="font-weight:bold;vertical-align:top;">is_pypy</td><td style="vertical-align:top;">:</td><td><div>False</div></td></tr><tr><td style="font-weight:bold;vertical-align:top;">is_source</td><td style="vertical-align:top;">:</td><td><div>True</div></td></tr><tr><td style="font-weight:bold;vertical-align:top;">local_hosts</td><td style="vertical-align:top;">:</td><td><div><table><tr><td><div>fe80::ca2a:14ff:fe04:5c0a%en0</div></td></tr><tr><td><div>10.1.131.147</div></td></tr><tr><td><div>::ffff:127.0.0.1</div></td></tr><tr><td><div>::1</div></td></tr><tr><td><div>aditya-gaykars-macbook-pro.local</div></td></tr><tr><td><div>127.0.0.1</div></td></tr><tr><td><div>Aditya-Gaykars-MacBook-Pro.local</div></td></tr></table></div></td></tr><tr><td style="font-weight:bold;vertical-align:top;">web2py_version</td><td style="vertical-align:top;">:</td><td><div>2.12.3-stable+timestamp.2015.08.19.00.18.03</div></td></tr></table></div></td></tr><tr><td style="font-weight:bold;vertical-align:top;">is_https</td><td style="vertical-align:top;">:</td><td><div>False</div></td></tr><tr><td style="font-weight:bold;vertical-align:top;">is_local</td><td style="vertical-align:top;">:</td><td><div>True</div></td></tr><tr><td style="font-weight:bold;vertical-align:top;">is_restful</td><td style="vertical-align:top;">:</td><td><div>False</div></td></tr><tr><td style="font-weight:bold;vertical-align:top;">is_sheduler</td><td style="vertical-align:top;">:</td><td><div>None</div></td></tr><tr><td style="font-weight:bold;vertical-align:top;">is_shell</td><td style="vertical-align:top;">:</td><td><div>None</div></td></tr><tr><td style="font-weight:bold;vertical-align:top;">now</td><td style="vertical-align:top;">:</td><td><div>datetime.datetime(2015, 11, 18, 12, 22, 57, 797284)</div></td></tr><tr><td style="font-weight:bold;vertical-align:top;">raw_args</td><td style="vertical-align:top;">:</td><td><div></div></td></tr><tr><td style="font-weight:bold;vertical-align:top;">raw_extension</td><td style="vertical-align:top;">:</td><td><div>None</div></td></tr><tr><td style="font-weight:bold;vertical-align:top;">url</td><td style="vertical-align:top;">:</td><td><div>/edify/course/view_student_uploads</div></td></tr><tr><td style="font-weight:bold;vertical-align:top;">utcnow</td><td style="vertical-align:top;">:</td><td><div>datetime.datetime(2015, 11, 18, 6, 52, 57, 797298)</div></td></tr><tr><td style="font-weight:bold;vertical-align:top;">wsgi</td><td style="vertical-align:top;">:</td><td><div>&lt;gluon.main.LazyWSGI object at 0x1074031d0&gt;</div></td></tr></table></div>'
tRp58
sS'frames'
p59
(lp60
(dp61
S'file'
p62
S'/Users/adityagaykar/Dropbox/Development/MtechCSE/Sem1/SCE/hackathon-github/web2py/gluon/restricted.py'
p63
sS'dump'
p64
(dp65
S'environment'
p66
S"{'A': <class 'gluon.html.A'>, 'ANY_OF': <class 'gluon.validators.ANY_OF'>, 'ASSIGNJS': <function ASSIGNJS>, 'AppConfig': <function AppConfig>, 'Auth': <class 'gluon.tools.Auth'>, 'B': <class 'gluon.html.B'>, 'BEAUTIFY': <class 'gluon.html.BEAUTIFY'>, 'BODY': <class 'gluon.html.BODY'>, 'BR': <class 'gluon.html.BR'>, 'BUTTON': <class 'gluon.html.BUTTON'>, ...}"
p67
sS'ccode'
p68
S'<code object <module> at 0x1073efb30, file "/Use.../views/course/view_student_uploads.html", line 1>'
p69
ssS'lnum'
p70
I227
sS'lines'
p71
(dp72
I224
S'            ccode = code'
p73
sI225
S'        else:'
p74
sI226
S'            ccode = compile2(code, layer)'
p75
sI227
S'        exec ccode in environment'
p76
sI228
S'    except HTTP:'
p77
sI229
S'        raise'
p78
sI230
S'    except RestrictedError:'
p79
sI231
S'        # do not encapsulate (obfuscate) the original RestrictedError'
p80
sI222
S'    try:'
p81
sI223
S'        if isinstance(code, types.CodeType):'
p82
ssS'call'
p83
S'(code="response.write(\'\\\\n\\\\n\\\\t\\\\t\\\\t\\\\t\\\\t\\\\t\\\\t\', escape=Fals...alse)\\n    pass\\nresponse.write(\'\\\\n\', escape=False)", environment={\'A\': <class \'gluon.html.A\'>, \'ANY_OF\': <class \'gluon.validators.ANY_OF\'>, \'ASSIGNJS\': <function ASSIGNJS>, \'AppConfig\': <function AppConfig>, \'Auth\': <class \'gluon.tools.Auth\'>, \'B\': <class \'gluon.html.B\'>, \'BEAUTIFY\': <class \'gluon.html.BEAUTIFY\'>, \'BODY\': <class \'gluon.html.BODY\'>, \'BR\': <class \'gluon.html.BR\'>, \'BUTTON\': <class \'gluon.html.BUTTON\'>, ...}, layer=\'/Users/adityagaykar/Dropbox/Development/MtechCSE...ions/edify/views/course/view_student_uploads.html\')'
p84
sS'func'
p85
S'restricted'
p86
sa(dp87
g62
S'/Users/adityagaykar/Dropbox/Development/MtechCSE/Sem1/SCE/hackathon-github/web2py/applications/edify/views/course/view_student_uploads.html'
p88
sg64
(dp89
S'a'
S'undefined'
p90
sS'href'
p91
g90
sS'Update'
p92
g90
sS'onclick'
p93
g90
ssg70
I30
sg71
(dp94
I32
S'        i = i + 1'
p95
sI33
S"        response.write('\\t\\t\\t\\t\\t\\t\\t\\t\\t\\n\\t\\t\\t\\t\\t\\t\\t\\t\\t', escape=False)"
p96
sI34
S'        pass'
p97
sI35
S'    response.write(\'\\n\\t\\t\\t\\t\\t\\t\\t\\t\\t\\t<tr>\\n\\t\\t\\t\\t\\t\\t\\t\\t\\t\\t\\t<td colspan="4" class="center">\\n\\t\\t\\t\\t\\t\\t\\t\\t\\t\\t\\t\\t<a href="#" onclick=\\\'ajax("\', escape=False)'
p98
sI36
S'    response.write(URL("course","update_assignment_marks"))'
p99
sI37
S'    response.write(\'", \', escape=False)'
p100
sI38
S'    response.write(names)'
p101
sI39
S'    response.write(\', ":eval")\\\' class="btn btn-success">Update</a>\\n\\t\\t\\t\\t\\t\\t\\t\\t\\t\\t\\t</td>\\n\\t\\t\\t\\t\\t\\t\\t\\t\\t\\t</tr>\\n\\t\\t\\t\\t\\t\\t\\t\\t\\t\\t</table>\\n\\t\\t\\t\\t\\t\\t\\t\\t\\t</div>\\n\\t\\t\\t\\t\\t\\t\\t\\t\', escape=False)'
p102
sI40
S'else:'
p103
sI21
S'            response.write(\'" required/></td>\\n\\t\\t\\t\\t\\t\\t\\t\\t\\t\\t\\t\', escape=False)'
p104
sI22
S'        else:'
p105
sI23
S'            response.write(\'\\n\\t\\t\\t\\t\\t\\t\\t\\t\\t\\t\\t<td><input type="text" value="0" name="\', escape=False)'
p106
sI24
S'            response.write(row.course_assignment_upload.id)'
p107
sI25
S'            response.write(\'" required/></td>\\n\\t\\t\\t\\t\\t\\t\\t\\t\\t\\t\\t\', escape=False)'
p108
sI26
S'            pass'
p109
sI27
S'        response.write(\'\\n\\t\\t\\t\\t\\t\\t\\t\\t\\t\\t\\t<td><a href="\', escape=False)'
p110
sI28
S"        response.write(URL('default','download/'+row.course_assignment_upload.attachment))"
p111
sI29
S'        response.write(\'"><div class="glyphicon glyphicon-download"></div></a></td>\\t\\t\\n\\t\\t\\t\\t\\t\\t\\t\\t\\t\\t\\t\', escape=False)'
p112
sI30
S'        names.append(\'"\'+str(row.course_assignment_upload.id))+\'"\''
p113
sI31
S"        response.write('\\n\\t\\t\\t\\t\\t\\t\\t\\t\\t\\t</tr>\\t\\n\\t\\t\\t\\t\\t\\t\\t\\t\\t\\t', escape=False)"
p114
ssg83
S'()'
p115
sg85
S'<module>'
p116
sasS'pyver'
p117
S'Python 2.7.10: /anaconda/bin/python (prefix: /anaconda)'
p118
sS'session'
p119
g57
(S's\x88\n\x00\x00<div><table><tr><td style="font-weight:bold;vertical-align:top;">auth</td><td style="vertical-align:top;">:</td><td><div><table><tr><td style="font-weight:bold;vertical-align:top;">expiration</td><td style="vertical-align:top;">:</td><td><div>3600</div></td></tr><tr><td style="font-weight:bold;vertical-align:top;">hmac_key</td><td style="vertical-align:top;">:</td><td><div>44594656-123b-4a6f-8dd9-1f5576f754dd</div></td></tr><tr><td style="font-weight:bold;vertical-align:top;">last_visit</td><td style="vertical-align:top;">:</td><td><div>datetime.datetime(2015, 11, 18, 12, 20, 0, 565201)</div></td></tr><tr><td style="font-weight:bold;vertical-align:top;">remember_me</td><td style="vertical-align:top;">:</td><td><div>False</div></td></tr><tr><td style="font-weight:bold;vertical-align:top;">user</td><td style="vertical-align:top;">:</td><td><div><table><tr><td style="font-weight:bold;vertical-align:top;">admin_verified</td><td style="vertical-align:top;">:</td><td><div>no</div></td></tr><tr><td style="font-weight:bold;vertical-align:top;">email</td><td style="vertical-align:top;">:</td><td><div>gaykar.aditya@students.iiit.ac.in</div></td></tr><tr><td style="font-weight:bold;vertical-align:top;">first_name</td><td style="vertical-align:top;">:</td><td><div>Aditya</div></td></tr><tr><td style="font-weight:bold;vertical-align:top;">gender</td><td style="vertical-align:top;">:</td><td><div>Male</div></td></tr><tr><td style="font-weight:bold;vertical-align:top;">id</td><td style="vertical-align:top;">:</td><td><div>1L</div></td></tr><tr><td style="font-weight:bold;vertical-align:top;">last_name</td><td style="vertical-align:top;">:</td><td><div>Gaykar</div></td></tr><tr><td style="font-weight:bold;vertical-align:top;">registration_id</td><td style="vertical-align:top;">:</td><td><div></div></td></tr><tr><td style="font-weight:bold;vertical-align:top;">registration_key</td><td style="vertical-align:top;">:</td><td><div></div></td></tr><tr><td style="font-weight:bold;vertical-align:top;">reset_password_key</td><td style="vertical-align:top;">:</td><td><div></div></td></tr><tr><td style="font-weight:bold;vertical-align:top;">role</td><td style="vertical-align:top;">:</td><td><div>Admin</div></td></tr></table></div></td></tr><tr><td style="font-weight:bold;vertical-align:top;">user_groups</td><td style="vertical-align:top;">:</td><td><div><table><tr><td style="font-weight:bold;vertical-align:top;">1</td><td style="vertical-align:top;">:</td><td><div>user_1</div></td></tr></table></div></td></tr></table></div></td></tr><tr><td style="font-weight:bold;vertical-align:top;">flash</td><td style="vertical-align:top;">:</td><td><div>None</div></td></tr></table></div>'
tRp120
sS'etype'
p121
S"<type 'exceptions.TypeError'>"
p122
sS'date'
p123
S'Wed Nov 18 12:22:58 2015'
p124
sS'response'
p125
g57
(S's\xe7\x1e\x00\x00<div><table><tr><td style="font-weight:bold;vertical-align:top;">body</td><td style="vertical-align:top;">:</td><td><div>&lt;cStringIO.StringO object at 0x10826cfb8&gt;</div></td></tr><tr><td style="font-weight:bold;vertical-align:top;">cookies</td><td style="vertical-align:top;">:</td><td><div><table><tr><td style="font-weight:bold;vertical-align:top;">session_id_edify</td><td style="vertical-align:top;">:</td><td><div>127.0.0.1-0a73c8e2-622f-4edc-aba1-38e7d5ce3d48<table><tr><td style="font-weight:bold;vertical-align:top;">comment</td><td style="vertical-align:top;">:</td><td><div></div></td></tr><tr><td style="font-weight:bold;vertical-align:top;">domain</td><td style="vertical-align:top;">:</td><td><div></div></td></tr><tr><td style="font-weight:bold;vertical-align:top;">expires</td><td style="vertical-align:top;">:</td><td><div></div></td></tr><tr><td style="font-weight:bold;vertical-align:top;">httponly</td><td style="vertical-align:top;">:</td><td><div></div></td></tr><tr><td style="font-weight:bold;vertical-align:top;">max-age</td><td style="vertical-align:top;">:</td><td><div></div></td></tr><tr><td style="font-weight:bold;vertical-align:top;">path</td><td style="vertical-align:top;">:</td><td><div>/</div></td></tr><tr><td style="font-weight:bold;vertical-align:top;">secure</td><td style="vertical-align:top;">:</td><td><div></div></td></tr><tr><td style="font-weight:bold;vertical-align:top;">version</td><td style="vertical-align:top;">:</td><td><div></div></td></tr></table></div></td></tr></table></div></td></tr><tr><td style="font-weight:bold;vertical-align:top;">delimiters</td><td style="vertical-align:top;">:</td><td><div><table><tr><td><div>{{</div></td></tr><tr><td><div>}}</div></td></tr></table></div></td></tr><tr><td style="font-weight:bold;vertical-align:top;">files</td><td style="vertical-align:top;">:</td><td><div><table></table></div></td></tr><tr><td style="font-weight:bold;vertical-align:top;">flash</td><td style="vertical-align:top;">:</td><td><div></div></td></tr><tr><td style="font-weight:bold;vertical-align:top;">form_label_separator</td><td style="vertical-align:top;">:</td><td><div></div></td></tr><tr><td style="font-weight:bold;vertical-align:top;">formstyle</td><td style="vertical-align:top;">:</td><td><div>bootstrap3_inline</div></td></tr><tr><td style="font-weight:bold;vertical-align:top;">generic_patterns</td><td style="vertical-align:top;">:</td><td><div><table><tr><td><div>*</div></td></tr></table></div></td></tr><tr><td style="font-weight:bold;vertical-align:top;">google_analytics_id</td><td style="vertical-align:top;">:</td><td><div>None</div></td></tr><tr><td style="font-weight:bold;vertical-align:top;">headers</td><td style="vertical-align:top;">:</td><td><div><table><tr><td style="font-weight:bold;vertical-align:top;">X-Powered-By</td><td style="vertical-align:top;">:</td><td><div>web2py</div></td></tr></table></div></td></tr><tr><td style="font-weight:bold;vertical-align:top;">logo</td><td style="vertical-align:top;">:</td><td><div><a class="navbar-brand" href="/edify/default/index" id="web2py-logo"><b>Edify</b>&trade;&nbsp;</a></div></td></tr><tr><td style="font-weight:bold;vertical-align:top;">menu</td><td style="vertical-align:top;">:</td><td><div><table><tr><td><div><table><tr><td><div>Home</div></td></tr><tr><td><div>False</div></td></tr><tr><td><div>/edify/default/index</div></td></tr><tr><td><div><table></table></div></td></tr></table></div></td></tr><tr><td><div><table><tr><td><div>courses</div></td></tr><tr><td><div>False</div></td></tr><tr><td><div>/edify/course/index</div></td></tr><tr><td><div><table></table></div></td></tr></table></div></td></tr></table></div></td></tr><tr><td style="font-weight:bold;vertical-align:top;">meta</td><td style="vertical-align:top;">:</td><td><div><table><tr><td style="font-weight:bold;vertical-align:top;">author</td><td style="vertical-align:top;">:</td><td><div>Your Name &lt;you@example.com&gt;</div></td></tr><tr><td style="font-weight:bold;vertical-align:top;">description</td><td style="vertical-align:top;">:</td><td><div>a cool new app</div></td></tr><tr><td style="font-weight:bold;vertical-align:top;">generator</td><td style="vertical-align:top;">:</td><td><div>Web2py Web Framework</div></td></tr><tr><td style="font-weight:bold;vertical-align:top;">keywords</td><td style="vertical-align:top;">:</td><td><div>web2py, python, framework</div></td></tr></table></div></td></tr><tr><td style="font-weight:bold;vertical-align:top;">models_to_run</td><td style="vertical-align:top;">:</td><td><div><table><tr><td><div>^\\w+\\.py$</div></td></tr><tr><td><div>^course/\\w+\\.py$</div></td></tr><tr><td><div>^course/view_student_uploads/\\w+\\.py$</div></td></tr></table></div></td></tr><tr><td style="font-weight:bold;vertical-align:top;">postprocessing</td><td style="vertical-align:top;">:</td><td><div><table></table></div></td></tr><tr><td style="font-weight:bold;vertical-align:top;">session_client</td><td style="vertical-align:top;">:</td><td><div>127.0.0.1</div></td></tr><tr><td style="font-weight:bold;vertical-align:top;">session_cookie_compression_level</td><td style="vertical-align:top;">:</td><td><div>None</div></td></tr><tr><td style="font-weight:bold;vertical-align:top;">session_cookie_expires</td><td style="vertical-align:top;">:</td><td><div>None</div></td></tr><tr><td style="font-weight:bold;vertical-align:top;">session_cookie_key</td><td style="vertical-align:top;">:</td><td><div>None</div></td></tr><tr><td style="font-weight:bold;vertical-align:top;">session_data_name</td><td style="vertical-align:top;">:</td><td><div>session_data_edify</div></td></tr><tr><td style="font-weight:bold;vertical-align:top;">session_file</td><td style="vertical-align:top;">:</td><td><div>&lt;open file &#x27;/Users/adityagaykar/Dropbox/Development/MtechCSE/Sem1/SCE/hackathon-github/web2py/applications/edify/sessions/1f6/1ee/127.0.0.1-0a73c8e2-622f-4edc-aba1-38e7d5ce3d48&#x27;, mode &#x27;rb+&#x27; at 0x1075dd150&gt;</div></td></tr><tr><td style="font-weight:bold;vertical-align:top;">session_filename</td><td style="vertical-align:top;">:</td><td><div>/Users/adityagaykar/Dropbox/Development/MtechCSE/Sem1/SCE/hackathon-github/web2py/applications/edify/sessions/127.0.0.1-0a73c8e2-622f-4edc-aba1-38e7d5ce3d48</div></td></tr><tr><td style="font-weight:bold;vertical-align:top;">session_hash</td><td style="vertical-align:top;">:</td><td><div>cf6f08a1450428201d9a8cbf23ee41d2</div></td></tr><tr><td style="font-weight:bold;vertical-align:top;">session_id</td><td style="vertical-align:top;">:</td><td><div>127.0.0.1-0a73c8e2-622f-4edc-aba1-38e7d5ce3d48</div></td></tr><tr><td style="font-weight:bold;vertical-align:top;">session_id_name</td><td style="vertical-align:top;">:</td><td><div>session_id_edify</div></td></tr><tr><td style="font-weight:bold;vertical-align:top;">session_locked</td><td style="vertical-align:top;">:</td><td><div>True</div></td></tr><tr><td style="font-weight:bold;vertical-align:top;">session_masterapp</td><td style="vertical-align:top;">:</td><td><div>edify</div></td></tr><tr><td style="font-weight:bold;vertical-align:top;">session_new</td><td style="vertical-align:top;">:</td><td><div>False</div></td></tr><tr><td style="font-weight:bold;vertical-align:top;">session_storage_type</td><td style="vertical-align:top;">:</td><td><div>file</div></td></tr><tr><td style="font-weight:bold;vertical-align:top;">status</td><td style="vertical-align:top;">:</td><td><div>200</div></td></tr><tr><td style="font-weight:bold;vertical-align:top;">subtitle</td><td style="vertical-align:top;">:</td><td><div></div></td></tr><tr><td style="font-weight:bold;vertical-align:top;">title</td><td style="vertical-align:top;">:</td><td><div>Edify</div></td></tr><tr><td style="font-weight:bold;vertical-align:top;">view</td><td style="vertical-align:top;">:</td><td><div>course/view_student_uploads.html</div></td></tr></table></div>'
tRp126
sS'locals'
p127
(dp128
S'Service'
p129
S"<class 'gluon.tools.Service'>"
p130
sS'OBJECT'
p131
S"<class 'gluon.html.OBJECT'>"
p132
sS'SQLDB'
p133
S"<class 'pydal.base.DAL'>"
p134
sg119
S"<Storage {'_auth_next': None, 'flash': None, 'au...gin]': ['f7359c0a-012d-4786-a246-278db642d1de']}>"
p135
sS'LINK'
p136
S"<class 'gluon.html.LINK'>"
p137
sS'BR'
p138
S"<class 'gluon.html.BR'>"
p139
sS'local_import'
p140
S'<function <lambda>>'
p141
sS'OPTGROUP'
p142
S"<class 'gluon.html.OPTGROUP'>"
p143
sS'__package__'
p144
S'None'
p145
sS'row'
p146
S"<Row {'_extra': {'MAX(course_assignment_upload.u...2ce.412e7465737432.test2', 'sid': 1L, 'id': 7L}}>"
p147
sS'PRE'
p148
S"<class 'gluon.html.PRE'>"
p149
sS'IS_INT_IN_RANGE'
p150
S"<class 'gluon.validators.IS_INT_IN_RANGE'>"
p151
sS'IS_LOWER'
p152
S"<class 'gluon.validators.IS_LOWER'>"
p153
sS'IS_STRONG'
p154
S"<class 'gluon.validators.IS_STRONG'>"
p155
sS'cache'
p156
S'<gluon.cache.Cache object>'
p157
sS'IS_IN_DB'
p158
S"<class 'gluon.validators.IS_IN_DB'>"
p159
sS'TAG'
p160
S'<gluon.html.__TAG__ object>'
p161
sS'SQLField'
p162
S"<class 'pydal.objects.Field'>"
p163
sS'mail'
p164
S'<gluon.tools.Mail object>'
p165
sS'BODY'
p166
S"<class 'gluon.html.BODY'>"
p167
sS'IS_DATE_IN_RANGE'
p168
S"<class 'gluon.validators.IS_DATE_IN_RANGE'>"
p169
sS'IFRAME'
p170
S"<class 'gluon.html.IFRAME'>"
p171
sS'URL'
p172
S'<function URL>'
p173
sS'__file__'
p174
S"'/Users/adityagaykar/Dropbox/Development/MtechCSE...ions/edify/views/course/view_student_uploads.html'"
p175
sS'db'
p176
S'<DAL uri="sqlite://storage.sqlite">'
p177
sS'auth'
p178
S'<gluon.tools.Auth object>'
p179
sS'P'
S"<class 'gluon.html.P'>"
p180
sS'TFOOT'
p181
S"<class 'gluon.html.TFOOT'>"
p182
sS'XHTML'
p183
S"<class 'gluon.html.XHTML'>"
p184
sS'datetime'
p185
S"<module 'datetime' from '/anaconda/lib/python2.7/lib-dynload/datetime.so'>"
p186
sS'ON'
p187
S'True'
p188
sS'OL'
p189
S"<class 'gluon.html.OL'>"
p190
sS'TEXTAREA'
p191
S"<class 'gluon.html.TEXTAREA'>"
p192
sS'MENU'
p193
S"<class 'gluon.html.MENU'>"
p194
sS'IS_IMAGE'
p195
S"<class 'gluon.validators.IS_IMAGE'>"
p196
sS'EM'
p197
S"<class 'gluon.html.EM'>"
p198
sS'CODE'
p199
S"<class 'gluon.html.CODE'>"
p200
sS'HTTP'
p201
S"<class 'gluon.http.HTTP'>"
p202
sS'HR'
p203
S"<class 'gluon.html.HR'>"
p204
sS'IS_DATETIME'
p205
S"<class 'gluon.validators.IS_DATETIME'>"
p206
sS'STYLE'
p207
S"<class 'gluon.html.STYLE'>"
p208
sS'LABEL'
p209
S"<class 'gluon.html.LABEL'>"
p210
sS'CLEANUP'
p211
S"<class 'gluon.validators.CLEANUP'>"
p212
sS'plugins'
p213
S'<gluon.tools.PluginManager object>'
p214
sS'SELECT'
p215
S"<class 'gluon.html.SELECT'>"
p216
sS'CENTER'
p217
S"<class 'gluon.html.CENTER'>"
p218
sS'Auth'
p219
S"<class 'gluon.tools.Auth'>"
p220
sS'DEVELOPMENT_MENU'
p221
S'False'
p222
sS'__builtins__'
p223
S"{'ArithmeticError': <type 'exceptions.ArithmeticError'>, 'AssertionError': <type 'exceptions.AssertionError'>, 'AttributeError': <type 'exceptions.AttributeError'>, 'BaseException': <type 'exceptions.BaseException'>, 'BufferError': <type 'exceptions.BufferError'>, 'BytesWarning': <type 'exceptions.BytesWarning'>, 'DeprecationWarning': <type 'exceptions.DeprecationWarning'>, 'EOFError': <type 'exceptions.EOFError'>, 'Ellipsis': Ellipsis, 'EnvironmentError': <type 'exceptions.EnvironmentError'>, ...}"
p224
sS'HTML'
p225
S"<class 'gluon.html.HTML'>"
p226
sS'SQLFORM'
p227
S"<class 'gluon.sqlhtml.SQLFORM'>"
p228
sS'LOAD'
p229
S'<function LOAD>'
p230
sS'redirect'
p231
S'<function redirect>'
p232
sS'FIELDSET'
p233
S"<class 'gluon.html.FIELDSET'>"
p234
sS'IS_EQUAL_TO'
p235
S"<class 'gluon.validators.IS_EQUAL_TO'>"
p236
sS'embed64'
p237
S'<function embed64>'
p238
sS'IS_LIST_OF'
p239
S"<class 'gluon.validators.IS_LIST_OF'>"
p240
sS'INPUT'
p241
S"<class 'gluon.html.INPUT'>"
p242
sS'EMBED'
p243
S"<class 'gluon.html.EMBED'>"
p244
sS'_'
S'<function _>'
p245
sS'myconf'
p246
S"{'forms': {'formstyle': 'bootstrap3_inline', 'se...'you@gmail.com', 'server': 'smtp.gmail.com:587'}}"
p247
sS'H2'
p248
S"<class 'gluon.html.H2'>"
p249
sS'H3'
p250
S"<class 'gluon.html.H3'>"
p251
sS'AppConfig'
p252
S'<function AppConfig>'
p253
sS'H1'
p254
S"<class 'gluon.html.H1'>"
p255
sS'H6'
p256
S"<class 'gluon.html.H6'>"
p257
sS'H4'
p258
S"<class 'gluon.html.H4'>"
p259
sS'H5'
p260
S"<class 'gluon.html.H5'>"
p261
sS'UL'
p262
S"<class 'gluon.html.UL'>"
p263
sS'IS_UPPER'
p264
S"<class 'gluon.validators.IS_UPPER'>"
p265
sS'xmlescape'
p266
S'<function xmlescape>'
p267
sS'IS_TIME'
p268
S"<class 'gluon.validators.IS_TIME'>"
p269
sS'OPTION'
p270
S"<class 'gluon.html.OPTION'>"
p271
sS'TITLE'
p272
S"<class 'gluon.html.TITLE'>"
p273
sS'CRYPT'
p274
S"<class 'gluon.validators.CRYPT'>"
p275
sS'IS_EMPTY_OR'
p276
S"<class 'gluon.validators.IS_EMPTY_OR'>"
p277
sS'MARKMIN'
p278
S"<class 'gluon.html.MARKMIN'>"
p279
sS'names'
p280
S'[\'"7\']'
p281
sS'__name__'
p282
S"'__restricted__'"
p283
sS'STRONG'
p284
S"<class 'gluon.html.STRONG'>"
p285
sS'COL'
p286
S"<class 'gluon.html.COL'>"
p287
sS'rows'
p288
S'<Rows (2)>'
p289
sS'service'
p290
S'<gluon.tools.Service object>'
p291
sS'SCRIPT'
p292
S"<class 'gluon.html.SCRIPT'>"
p293
sS'TABLE'
p294
S"<class 'gluon.html.TABLE'>"
p295
sS'IS_IPV4'
p296
S"<class 'gluon.validators.IS_IPV4'>"
p297
sS'IS_LENGTH'
p298
S"<class 'gluon.validators.IS_LENGTH'>"
p299
sS'IS_IPV6'
p300
S"<class 'gluon.validators.IS_IPV6'>"
p301
sS'XML'
p302
S"<class 'gluon.html.XML'>"
p303
sS'B'
S"<class 'gluon.html.B'>"
p304
sS'IMG'
p305
S"<class 'gluon.html.IMG'>"
p306
sS'SQLTABLE'
p307
S"<class 'gluon.sqlhtml.SQLTABLE'>"
p308
sS'IS_MATCH'
p309
S"<class 'gluon.validators.IS_MATCH'>"
p310
sS'IS_ALPHANUMERIC'
p311
S"<class 'gluon.validators.IS_ALPHANUMERIC'>"
p312
sS'SPAN'
p313
S"<class 'gluon.html.SPAN'>"
p314
sS'IS_JSON'
p315
S"<class 'gluon.validators.IS_JSON'>"
p316
sS'IS_IPADDRESS'
p317
S"<class 'gluon.validators.IS_IPADDRESS'>"
p318
sS'IS_SLUG'
p319
S"<class 'gluon.validators.IS_SLUG'>"
p320
sS'assignment_id'
p321
S"'6'"
p322
sS'BEAUTIFY'
p323
S"<class 'gluon.html.BEAUTIFY'>"
p324
sS'META'
p325
S"<class 'gluon.html.META'>"
p326
sS'BUTTON'
p327
S"<class 'gluon.html.BUTTON'>"
p328
sS'IS_DATE'
p329
S"<class 'gluon.validators.IS_DATE'>"
p330
sS'IS_EMAIL'
p331
S"<class 'gluon.validators.IS_EMAIL'>"
p332
sS'IS_NOT_EMPTY'
p333
S"<class 'gluon.validators.IS_NOT_EMPTY'>"
p334
sS'IS_FLOAT_IN_RANGE'
p335
S"<class 'gluon.validators.IS_FLOAT_IN_RANGE'>"
p336
sS'TBODY'
p337
S"<class 'gluon.html.TBODY'>"
p338
sS'CAT'
p339
S"<class 'gluon.html.CAT'>"
p340
sS'Field'
p341
S"<class 'pydal.objects.Field'>"
p342
sS'IS_LIST_OF_EMAILS'
p343
S"<class 'gluon.validators.IS_LIST_OF_EMAILS'>"
p344
sS'DIV'
p345
S"<class 'gluon.html.DIV'>"
p346
sS'LEGEND'
p347
S"<class 'gluon.html.LEGEND'>"
p348
sS'COLGROUP'
p349
S"<class 'gluon.html.COLGROUP'>"
p350
sS'DAL'
p351
S"<class 'pydal.base.DAL'>"
p352
sS'ASSIGNJS'
p353
S'<function ASSIGNJS>'
p354
sS'TR'
p355
S"<class 'gluon.html.TR'>"
p356
sS'LI'
p357
S"<class 'gluon.html.LI'>"
p358
sS'TH'
p359
S"<class 'gluon.html.TH'>"
p360
sS'TD'
p361
S"<class 'gluon.html.TD'>"
p362
sS'PluginManager'
p363
S"<class 'gluon.tools.PluginManager'>"
p364
sS'IS_URL'
p365
S"<class 'gluon.validators.IS_URL'>"
p366
sS'A'
S"<class 'gluon.html.A'>"
p367
sS'HEAD'
p368
S"<class 'gluon.html.HEAD'>"
p369
sS'IS_DATETIME_IN_RANGE'
p370
S"<class 'gluon.validators.IS_DATETIME_IN_RANGE'>"
p371
sS'FORM'
p372
S"<class 'gluon.html.FORM'>"
p373
sS'I'
S"<class 'gluon.html.I'>"
p374
sS'IS_NOT_IN_DB'
p375
S"<class 'gluon.validators.IS_NOT_IN_DB'>"
p376
sg125
S"<Storage {'body': <cStringIO.StringO object at 0...d0>, 'view': 'course/view_student_uploads.html'}>"
p377
sS'THEAD'
p378
S"<class 'gluon.html.THEAD'>"
p379
sS'ANY_OF'
p380
S"<class 'gluon.validators.ANY_OF'>"
p381
sS'IS_NULL_OR'
p382
S"<class 'gluon.validators.IS_EMPTY_OR'>"
p383
sS'i'
S'1'
sg56
S"<Storage {'_vars': <Storage {'assignment_upload_...CE/hackathon-github/web2py/applications/edify/'}>"
p384
sS'IS_EXPR'
p385
S"<class 'gluon.validators.IS_EXPR'>"
p386
sS'T'
S'<gluon.languages.translator object>'
p387
sS'IS_IN_SET'
p388
S"<class 'gluon.validators.IS_IN_SET'>"
p389
sS'IS_UPLOAD_FILENAME'
p390
S"<class 'gluon.validators.IS_UPLOAD_FILENAME'>"
p391
sS'time'
p392
S"<module 'time' from '/anaconda/lib/python2.7/lib-dynload/time.so'>"
p393
sS'TT'
p394
S"<class 'gluon.html.TT'>"
p395
sS'IS_DECIMAL_IN_RANGE'
p396
S"<class 'gluon.validators.IS_DECIMAL_IN_RANGE'>"
p397
sssS'traceback'
p398
S'Traceback (most recent call last):\n  File "/Users/adityagaykar/Dropbox/Development/MtechCSE/Sem1/SCE/hackathon-github/web2py/gluon/restricted.py", line 227, in restricted\n    exec ccode in environment\n  File "/Users/adityagaykar/Dropbox/Development/MtechCSE/Sem1/SCE/hackathon-github/web2py/applications/edify/views/course/view_student_uploads.html", line 30, in <module>\n    <a href="#" onclick=\'ajax("{{=URL("course","update_assignment_marks")}}", {{=names}}, ":eval")\' class="btn btn-success">Update</a>\nTypeError: unsupported operand type(s) for +: \'NoneType\' and \'str\'\n'
p399
s.