(dp1
S'output'
p2
S"<type 'exceptions.SyntaxError'> invalid syntax (course.py, line 431)"
p3
sS'layer'
p4
S'/Users/adityagaykar/Dropbox/Development/MtechCSE/Sem1/SCE/hackathon-github/web2py/applications/edify/controllers/course.py'
p5
sS'code'
p6
S'import time,datetime\n\nPOST_PER_PAGE=6\n\n@auth.requires_login()\ndef index():\n#list the courses available for current year for registration\n    courses = []\n    page = request.args(0, cast=int, default=0)\n    start = page*POST_PER_PAGE\n    stop = start + POST_PER_PAGE\n    rows = db(db.course).select(limitby=(start, stop))\n    for row in rows:\n      courses.append([row.name, row.faculty.first_name + " " +  row.faculty.last_name, row.id])\n    return locals()\n\n@auth.requires_login()\ndef index_search():\n    courses = []\n    page = request.args(0, cast=int, default=0)\n    start = page*POST_PER_PAGE\n    stop = start + POST_PER_PAGE\n    search_query = request.vars.search_courses\n    rows = db(db.course.name.like(\'%\'+search_query+\'%\')).select(limitby=(start, stop))\n    for row in rows:\n        courses.append([row.name, row.faculty.first_name + " " +  row.faculty.last_name, row.id])\n    return locals()\n\n# @auth.requires_login()\n# def index():\n# \t#list the courses available for current year for registration\n# \tcourses = []\n# \trows = db(db.course).select()\n# \tfor row in rows:\n# \t\tcourses.append([row.name, row.faculty.first_name + " " +  row.faculty.last_name, row.id])\n# \treturn locals()\n\n@auth.requires_login()\ndef view():\n\tcourse_id = request.args(0)\n\trows = db(db.course.id ==course_id).select()\n\t#faculty = None\n\tif(len(rows) == 0):\n\t\tresponse.flash = "Invalid course"\n\telse:\n\t\tmessage = rows[0].name\n\t\tfaculty = rows[0].faculty.first_name + " " + rows[0].faculty.last_name\n\t\tcourse_description = rows[0].course_description\n\t\trows = db((db.course_registration.cid==course_id)&(db.course_registration.sid==auth.user.id)).select()\n\t\tif len(rows) == 0:\n\t\t\tregistered = 0\n\t\telse:\n\t\t\tregistered = 1\n\t\trows = db((db.course_ta.cid==course_id)&(db.course_ta.sid==auth.user.id)).select()\n\t\tif len(rows) == 0:\n\t\t\tis_ta = 0\n\t\telse:\n\t\t\tis_ta = 1\t\n\treturn locals()\n\n@auth.requires_login()\ndef register():\n\tcourse_id = request.args(0)\n\trows = db(db.course.id ==course_id).select()\n\t#faculty = None\n\tif(len(rows) == 0):\n\t\tresponse.flash = "Invalid course"\n\telse:\n\t\tdb.course_registration.insert(cid=course_id, sid=auth.user.id)\n\t\tdb.activity.insert(cid=course_id, sid=auth.user.id, \n\t\t\tdescription="You registered for "+rows[0].name+" course.",\n\t\t\tactivity_scope="student"\n\t\t\t)\n\t\tredirect(URL("course","main/"+str(course_id)))\n\treturn locals()\n\t\t\n@auth.requires_login()\ndef unregister():\n\tcourse_id = request.args(0)\n\trows = db(db.course.id ==course_id).select()\n\tif(len(rows) == 0):\n\t\tresponse.flash = "Invalid course"\n\telse:\n\t\tdb((db.course_registration.cid==course_id)&(db.course_registration.sid==auth.user.id)).delete()\n\t\tdb.activity.insert(cid=course_id, sid=auth.user.id, \n\t\t\tdescription="You left "+rows[0].name+" course.",\n\t\t\tactivity_scope="student"\n\t\t\t)\n\t\tredirect(URL("course","main/"+str(course_id)))\n\t\t\n\treturn locals()\n\n@auth.requires_login()\ndef ta_register():\n\tcourse_id = request.args(0)\n\trows = db(db.course.id ==course_id).select()\n\t#faculty = None\n\tif(len(rows) == 0):\n\t\tresponse.flash = "Invalid course"\n\telse:\n\t\tdb.course_ta.insert(cid=course_id, sid=auth.user.id)\n\t\t#adding activity\n\t\tdb.activity.insert(cid=course_id, sid=auth.user.id, \n\t\t\tdescription=auth.user.first_name+" "+auth.user.last_name+" requested for TAship for "+rows[0].name+" course.",\n\t\t\tactivity_scope="faculty"\n\t\t\t)\n\t\tdb.activity.insert(cid=course_id, sid=auth.user.id, \n\t\t\tdescription="You requested for TAship for "+rows[0].name+" course.",\n\t\t\tactivity_scope="student"\n\t\t\t)\n\t\tredirect(URL("course","main/"+str(course_id)))\n\treturn locals()\n\t\t\n@auth.requires_login()\ndef ta_unregister():\n\tcourse_id = request.args(0)\n\trows = db(db.course.id ==course_id).select()\n\tif(len(rows) == 0):\n\t\tresponse.flash = "Invalid course"\n\telse:\n\t\tdb((db.course_ta.cid==course_id)&(db.course_ta.sid==auth.user.id)).delete()\n\t\tdb.activity.insert(cid=course_id, sid=auth.user.id, \n\t\t\tdescription=auth.user.first_name+" "+auth.user.last_name+" left TAship for "+rows[0].name+" course.",\n\t\t\tactivity_scope="faculty"\n\t\t\t)\n\t\tdb.activity.insert(cid=course_id, sid=auth.user.id, \n\t\t\tdescription="You left TAship for "+rows[0].name+" course.",\n\t\t\tactivity_scope="student"\n\t\t\t)\n\t\tredirect(URL("course","main/"+str(course_id)))\t\t\n\treturn locals()\n\n@auth.requires_login()\ndef manage_course():\n\tcourse_id = request.args(0)\t\n\tta_requests = db((db.course_ta.cid == course_id)&(db.course_ta.approval == \'no\')).select()\n\tcourse_ta   = db((db.course_ta.cid == course_id)&(db.course_ta.approval == \'yes\')).select()\n\tif(len(ta_requests) == 0):\n\t\tcourses = db(db.course.id == course_id).select()\n\t\tmessage = courses[0].name#response.flash = "Invalid course"\n\telse:\n\t\tmessage = ta_requests[0].cid.name\n\treturn locals()\n\n@auth.requires_login()\ndef main():\n\tcourse_id = request.args(0)\n\trows = db(db.course.id ==course_id).select()\n\tif(len(rows) == 0):\n\t\tresponse.flash = "Invalid course"\n\telse:\n\t\thas_edit_access = 0\n\t\tmessage = rows[0].name\n\t\tfaculty = rows[0].faculty\n\t\tinstructor = rows[0].faculty.first_name + " " + rows[0].faculty.last_name\n\t\tcourse_description = rows[0].course_description\n\t\trows = db((db.course_registration.cid==course_id)&(db.course_registration.sid==auth.user.id)).select()\n\t\tif len(rows) == 0:\n\t\t\tregistered = 0\t\t\t\n\t\telse:\n\t\t\tregistered = 1\n\t\trows = db((db.course_ta.cid==course_id)&(db.course_ta.sid==auth.user.id)).select()\n\t\tif len(rows) == 0:\n\t\t\tis_ta = 0\n\t\telse:\n\t\t\tis_ta = 1\n\t\trows = db((db.course_ta.cid==course_id)&(db.course_ta.sid==auth.user.id)&(db.course_ta.approval==\'yes\')).select()\n\t\tif len(rows) == 0:\n\t\t\tis_ta_approved = 0\t\t\t\n\t\telse:\n\t\t\tis_ta_approved = 1\n\t\t\thas_edit_access = 1\n\t\trows = db((db.course_ta.cid==course_id)&(db.course_ta.sid==auth.user.id)&(db.course_ta.approval == \'yes\')).select() \n\t\tif( len(rows) == 1):\n\t\t\tta_approved = 1\n\t\telse:\n\t\t\tta_approved = 0\n\t\tif faculty == auth.user.id:\n\t\t\thas_edit_access = 1\n\n\t\t# if( registered == 0 and is_ta == 0 and faculty != auth.user.id):\n\t\t# \tredirect(URL("default","index"))\n\t\ttas = db((db.course_ta.cid == course_id)&(db.course_ta.approval == \'yes\')).select()\n\treturn locals()\n\n@auth.requires_login()\ndef approve_ta():\n\tta_id =request.args(0)\n\tta_requests = db((db.course_ta.id == ta_id)).select()\n\tif(len(ta_requests) == 0):\n\t\tsession.flash = "Invalid TA"\n\telse:\n\t\tdb((db.course_ta.id == ta_id)).update(approval=\'yes\')\n\t\tdb.activity.insert(cid=ta_requests[0].cid, sid=auth.user.id, \n\t\t\tdescription=auth.user.first_name+" "+auth.user.last_name+" approved your TAship request for "+ta_requests[0].cid.name+" course.",\n\t\t\tactivity_scope="ta"\n\t\t\t)\n\t\tsession.flash = "TA request accepted successfully"\n\tredirect(URL("course","main/"+str(ta_requests[0].cid)))\n\treturn locals()\n\n@auth.requires_login()\ndef reject_ta():\n\tta_id =request.args(0)\n\tta_requests = db((db.course_ta.id == ta_id)).select()\n\tif(len(ta_requests) == 0):\n\t\tsession.flash = "Invalid TA"\n\telse:\n\t\tdb((db.course_ta.id == ta_id)).delete()\n\t\tdb.activity.insert(cid=ta_requests[0].cid, sid=auth.user.id, \n\t\t\tdescription=auth.user.first_name+" "+auth.user.last_name+" rejected your TAship request for "+ta_requests[0].cid.name+" course.",\n\t\t\tactivity_scope="ta"\n\t\t\t)\n\t\tsession.flash = "TA request rejected successfully"\n\tredirect(URL("course","main/"+str(ta_requests[0].cid)))\n\treturn locals()\n\n@auth.requires_login()\ndef home():\n\tcourse_id = request.args(0)\n\tcourse = db(db.course.id == course_id).select()\n\tif(course and len(course) == 1):\n\t\tcourse_des = course[0].course_description\t\t\t\t\n\t\thas_edit_access = 0\n\t\tfaculty = course[0].faculty\t\t\n\t\trows = db((db.course_ta.cid==course_id)&(db.course_ta.sid==auth.user.id)&(db.course_ta.approval==\'yes\')).select()\n\t\tif len(rows) == 0:\n\t\t\tis_ta_approved = 0\t\t\t\n\t\telse:\n\t\t\tis_ta_approved = 1\n\t\t\thas_edit_access = 1\t\t\n\t\tif faculty == auth.user.id:\n\t\t\thas_edit_access = 1\n\telse:\n\t\tresponse.flash = "Invalid course" \n\treturn locals()\n\n@auth.requires_login()\ndef assignments():\n\tcourse_id = request.args(0)\n\tcourse = db(db.course.id == course_id).select()\n\tis_staff = 0\n\tif(len(course) == 0):\n\t\tresponse.flash = "Invalid course" \n\telse:\n\t\tif course[0].faculty == auth.user.id:\n\t\t\tis_staff = 1\n\t\telse:\t\t\t\n\t\t\tta_approved = db((db.course_ta.cid == course_id)&(db.course_ta.sid == auth.user.id)&(db.course_ta.approval==\'yes\')).select()\t\t\t\n\t\t\tif len(ta_approved) == 1:\n\t\t\t\tta_approved = 1\n\t\t\telse:\n\t\t\t\tta_approved = 0\n\t\tlinks = db(db.course_assignments.cid==course_id).select()\t\t\t\t\n\treturn locals()\n\n@auth.requires_login()\ndef upload_assignment():\n\tdata = request.vars\n\tcourse_id = request.args(0)\n\tcourse = db(db.course.id == course_id).select()\n\tif(len(course) == 0):\n\t\tresponse.flash = "Invalid course" \n\telse:\n\t\tdata = request.vars\n\t\tdb.course_assignments.insert(cid=course_id,sid=auth.user.id,attachment=data.assignment_file, title=data.assignment_name, deadline=data.assignment_deadline, total_marks=data.assignment_total_marks)\t\t\t\n\t\tdb.activity.insert(cid=course_id, sid=auth.user.id, \n\t\t\tdescription=auth.user.first_name+" "+auth.user.last_name+" uploaded new assignment, \\""+data.assignment_name+"\\" for "+course[0].name+" course.",\n\t\t\tactivity_scope="all"\n\t\t\t)\n\t\tsession.flash = "File uploaded successfully"\n\tredirect(URL(\'course\',\'main/\'+str(course_id)))\n\treturn locals()\n\n\n@auth.requires_login()\ndef upload_student_assignment():\n\tdata = request.vars\n\tcourse_id = request.args(0)\n\tcourse = db(db.course.id == course_id).select()\n\tif(len(course) == 0):\n\t\tresponse.flash = "Invalid course" \n\telse:\n\t\tdata = request.vars\n\t\trecent_uploads = db((db.course_assignment_upload.aid == data.assignment_id)&(db.course_assignment_upload.sid==auth.user.id)).select()\n\t\tif(len(recent_uploads) == 5):\n\t\t\tsession.flash = "Maximum upload limit exceeded"\n\t\telse:\n\t\t\tdb.course_assignment_upload.insert(aid=data.assignment_id,sid=auth.user.id,attachment=data.assignment_file)\t\t\t\n\t\t\tsession.flash = "File uploaded successfully"\n\tredirect(URL(\'course\',\'main/\'+str(course_id)))\n\treturn locals()\n\n@auth.requires_login()\ndef upload_resource():\n\tdata = request.vars\n\tcourse_id = request.args(0)\n\tcourse = db(db.course.id == course_id).select()\n\tif(len(course) == 0):\n\t\tresponse.flash = "Invalid course" \n\telse:\n\t\tdata = request.vars\n\t\tdb.course_resources.insert(cid=course_id,sid=auth.user.id,attachment=data.resource_file, title=data.resource_name)\t\t\t\n\t\tdb.activity.insert(cid=course_id, sid=auth.user.id, \n\t\t\tdescription=auth.user.first_name+" "+auth.user.last_name+" uploaded new resource, \\""+data.resource_name+"\\" for "+course[0].name+" course.",\n\t\t\tactivity_scope="all"\n\t\t\t)\n\t\tsession.flash = "File uploaded successfully"\n\tredirect(URL(\'course\',\'main/\'+str(course_id)))\n\treturn locals()\n\n@auth.requires_login()\ndef resources():\n\tcourse_id = request.args(0)\n\tcourse = db(db.course.id == course_id).select()\n\tis_staff = 0\n\tif(len(course) == 0):\n\t\tresponse.flash = "Invalid course" \n\telse:\n\t\tif course[0].faculty == auth.user.id:\n\t\t\tis_staff = 1\n\t\telse:\n\t\t\tta_approved = db((db.course_ta.cid == course_id)&(db.course_ta.sid == auth.user.id)&(db.course_ta.approval==\'yes\')).select()\t\t\t\n\t\t\tif len(ta_approved) == 1:\n\t\t\t\tta_approved = 1\n\t\t\telse:\t\n\t\t\t\tta_approved = 0\n\t\tlinks = db(db.course_resources.cid==course_id).select()\t\t\t\t\n\treturn locals()\n\n@auth.requires_login()\ndef upload():\n\tcourse_id = request.args(0)\n\tcourse = db(db.course.id == course_id).select()\n\tif(len(course) == 0):\n\t\tresponse.flash = "Invalid course"\n\telse:\t\t\n\t\tta_approved = db((db.course_ta.cid == course_id)&(db.course_ta.sid == auth.user.id)&(db.course_ta.approval==\'yes\')).select()\t\t\t\n\t\tif len(ta_approved) == 1 or auth.user.role == "faculty":\n\t\t\tta_approved = 1\n\t\telse:\n\t\t\tta_approved = 0\n\t\tassignments = db((db.course_assignments.deadline >= datetime.datetime.now())&(db.course_assignments.cid == course_id)).select()\n\treturn locals()\n\n@auth.requires_login()\ndef marks():\n\tcourse_id = request.args(0)\n\tcourse = db(db.course.id == course_id).select()\n\tif(len(course) == 0):\n\t\tresponse.flash = "Invalid course"\n\treturn locals()\n\n\n@auth.requires_login()\ndef activity():\n\tcourse_id = request.args(0)\n\tcourse = db(db.course.id == course_id).select()\n\tif(len(course) == 0):\n\t\tresponse.flash = "Invalid course"\n\telse:\n\t\tactivities = db((db.activity.cid==course_id)&(db.activity.activity_scope==\'all\')).select(orderby=~db.activity.publish_date,limitby=(0, 20))\n\treturn locals()\n\n\n@auth.requires_login()\ndef approvals():\n\tcourse_id = request.args(0)\n\tcourse = db(db.course.id == course_id).select()\n\tif(len(course) == 0):\n\t\tresponse.flash = "Invalid course"\n\telse:\n\t\tta_requests = db((db.course_ta.cid == course_id)&(db.course_ta.approval == \'no\')).select()\n\t\tcourse_ta   = db((db.course_ta.cid == course_id)&(db.course_ta.approval == \'yes\')).select()\t\t\n\treturn locals()\n\n@auth.requires_login()\ndef delete_assignment():\n\tassignment_id = request.args(0)\n\tassignment = db(db.course_assignments.id == assignment_id).select()\n\n\tif( len(assignment) == 0):\n\t\tsession.flash = "Invalid assignment"\n\telse:\n\t\tcourse_id = assignment.first().cid\n\t\tdb(db.course_assignments.id == assignment_id).delete()\n\t\tdb.activity.insert(cid=course_id, sid=auth.user.id, \n\t\t\tdescription=auth.user.first_name+" "+auth.user.last_name+" deleted assignment, \\""+assignment.first().title+"\\" for "+assignment.first().cid.name+" course.",\n\t\t\tactivity_scope="all"\n\t\t\t)\n\t\tsession.flash = "Assignment deleted successfully"\n\t\tredirect(URL(\'course\',\'main/\'+str(course_id)))\n\n@auth.requires_login()\ndef delete_resource():\n\tresource_id = request.args(0)\n\tresource = db(db.course_resources.id == resource_id).select()\n\tif( len(resource) == 0):\n\t\tsessions.flash = "Invalid resources"\n\telse:\n\t\tcourse_id = resource.first().cid\n\t\tdb.activity.insert(cid=course_id, sid=auth.user.id, \n\t\t\tdescription=auth.user.first_name+" "+auth.user.last_name+" deleted resource, \\""+resource.first().title+"\\" for "+resource.first().cid.name+" course.",\n\t\t\tactivity_scope="all"\n\t\t\t)\n\t\tdb(db.course_resources.id == resource_id).delete()\n\t\tsession.flash = "Resource deleted successfully"\n\t\tredirect(URL(\'course\',\'main/\'+str(course_id)))\n\n@auth.requires_login()\ndef view_student_uploads():\n\t#return str(request.vars)\n\tassignment_id = request.vars.assignment_upload_id\t\n\trows = db(db.course_assignment_upload.aid==assignment_id).select(db.course_assignment_upload.id,db.course_assignment_upload.marks,db.course_assignment_upload.sid,db.course_assignment_upload.attachment,db.course_assignment_upload.upload_date.max(),groupby=db.course_assignment_upload.sid)\n\treturn locals()\n\n@auth.requires_login()\ndef update_overview():\n\tcourse_id = request.args(0)\n\tcontent = XML(request.vars.hidediv)\n\tif db.course(course_id):\n\t\tdb(db.course.id == course_id).update(course_description=content);\n\t\treturn "alert(\'Content updated successfully\')";\n\telse:\n\t\treturn "alert(\'error\')";\n\n@auth.requires_login()\ndef update_assignment_marks():\n\tdata = request.vars\n\tfor key in data.keys():\n\t\tif type(data[key]) != int and type(data[key]) !+ float:\n\t\t\treturn "alert(\'Invalid number\')";\n\tfor key in data.keys():\n\t\tdb(db.course_assignment_upload.id == key).update(marks=data[key]);\n\treturn "alert(\'Content updated successfully\')";\n\t\t\n\n\n\n\n\n\n\n\n\n\nresponse._vars=response._caller(main)\n'
p7
sS'snapshot'
p8
(dp9
S'exception'
p10
(dp11
S'__getslice__'
p12
S"<method-wrapper '__getslice__' of exceptions.SyntaxError object>"
p13
sS'text'
p14
S"'\\t\\tif type(data[key]) != int and type(data[key]) !+ float:\\n'"
p15
sS'__str__'
p16
S"<method-wrapper '__str__' of exceptions.SyntaxError object>"
p17
sS'__reduce__'
p18
S'<built-in method __reduce__ of exceptions.SyntaxError object>'
p19
sS'__dict__'
p20
S'{}'
p21
sS'__sizeof__'
p22
S'<built-in method __sizeof__ of exceptions.SyntaxError object>'
p23
sS'__init__'
p24
S"<method-wrapper '__init__' of exceptions.SyntaxError object>"
p25
sS'__setattr__'
p26
S"<method-wrapper '__setattr__' of exceptions.SyntaxError object>"
p27
sS'__reduce_ex__'
p28
S'<built-in method __reduce_ex__ of exceptions.SyntaxError object>'
p29
sS'__new__'
p30
S'<built-in method __new__ of type object>'
p31
sS'__format__'
p32
S'<built-in method __format__ of exceptions.SyntaxError object>'
p33
sS'__class__'
p34
S"<type 'exceptions.SyntaxError'>"
p35
sS'filename'
p36
S"'/Users/adityagaykar/Dropbox/Development/MtechCSE...b/web2py/applications/edify/controllers/course.py'"
p37
sS'lineno'
p38
S'431'
p39
sS'msg'
p40
S"'invalid syntax'"
p41
sS'__doc__'
p42
S"'Invalid syntax.'"
p43
sS'__getitem__'
p44
S"<method-wrapper '__getitem__' of exceptions.SyntaxError object>"
p45
sS'__setstate__'
p46
S'<built-in method __setstate__ of exceptions.SyntaxError object>'
p47
sS'__getattribute__'
p48
S"<method-wrapper '__getattribute__' of exceptions.SyntaxError object>"
p49
sS'print_file_and_line'
p50
S'None'
p51
sS'args'
p52
S"('invalid syntax', ('/Users/adityagaykar/Dropbox/Development/MtechCSE...b/web2py/applications/edify/controllers/course.py', 431, 49, '\\t\\tif type(data[key]) != int and type(data[key]) !+ float:\\n'))"
p53
sS'__subclasshook__'
p54
S'<built-in method __subclasshook__ of type object>'
p55
sS'offset'
p56
S'49'
p57
sS'__unicode__'
p58
S'<built-in method __unicode__ of exceptions.SyntaxError object>'
p59
sS'__delattr__'
p60
S"<method-wrapper '__delattr__' of exceptions.SyntaxError object>"
p61
sS'__repr__'
p62
S"<method-wrapper '__repr__' of exceptions.SyntaxError object>"
p63
sS'__hash__'
p64
S"<method-wrapper '__hash__' of exceptions.SyntaxError object>"
p65
ssS'evalue'
p66
S'invalid syntax (course.py, line 431)'
p67
sS'request'
p68
cgluon.html
XML_unpickle
p69
(S'sjg\x00\x00<div><table><tr><td style="font-weight:bold;vertical-align:top;">ajax</td><td style="vertical-align:top;">:</td><td><div>False</div></td></tr><tr><td style="font-weight:bold;vertical-align:top;">application</td><td style="vertical-align:top;">:</td><td><div>edify</div></td></tr><tr><td style="font-weight:bold;vertical-align:top;">args</td><td style="vertical-align:top;">:</td><td><div><table><tr><td><div>52</div></td></tr></table></div></td></tr><tr><td style="font-weight:bold;vertical-align:top;">cid</td><td style="vertical-align:top;">:</td><td><div>None</div></td></tr><tr><td style="font-weight:bold;vertical-align:top;">client</td><td style="vertical-align:top;">:</td><td><div>127.0.0.1</div></td></tr><tr><td style="font-weight:bold;vertical-align:top;">controller</td><td style="vertical-align:top;">:</td><td><div>course</div></td></tr><tr><td style="font-weight:bold;vertical-align:top;">cookies</td><td style="vertical-align:top;">:</td><td><div><table><tr><td style="font-weight:bold;vertical-align:top;">session_id_admin</td><td style="vertical-align:top;">:</td><td><div>127.0.0.1-beff7b5d-47b8-4d5f-b5b5-fa1b56942bdf<table><tr><td style="font-weight:bold;vertical-align:top;">comment</td><td style="vertical-align:top;">:</td><td><div></div></td></tr><tr><td style="font-weight:bold;vertical-align:top;">domain</td><td style="vertical-align:top;">:</td><td><div></div></td></tr><tr><td style="font-weight:bold;vertical-align:top;">expires</td><td style="vertical-align:top;">:</td><td><div></div></td></tr><tr><td style="font-weight:bold;vertical-align:top;">httponly</td><td style="vertical-align:top;">:</td><td><div></div></td></tr><tr><td style="font-weight:bold;vertical-align:top;">max-age</td><td style="vertical-align:top;">:</td><td><div></div></td></tr><tr><td style="font-weight:bold;vertical-align:top;">path</td><td style="vertical-align:top;">:</td><td><div></div></td></tr><tr><td style="font-weight:bold;vertical-align:top;">secure</td><td style="vertical-align:top;">:</td><td><div></div></td></tr><tr><td style="font-weight:bold;vertical-align:top;">version</td><td style="vertical-align:top;">:</td><td><div></div></td></tr></table></div></td></tr><tr><td style="font-weight:bold;vertical-align:top;">session_id_edify</td><td style="vertical-align:top;">:</td><td><div>127.0.0.1-0a73c8e2-622f-4edc-aba1-38e7d5ce3d48<table><tr><td style="font-weight:bold;vertical-align:top;">comment</td><td style="vertical-align:top;">:</td><td><div></div></td></tr><tr><td style="font-weight:bold;vertical-align:top;">domain</td><td style="vertical-align:top;">:</td><td><div></div></td></tr><tr><td style="font-weight:bold;vertical-align:top;">expires</td><td style="vertical-align:top;">:</td><td><div></div></td></tr><tr><td style="font-weight:bold;vertical-align:top;">httponly</td><td style="vertical-align:top;">:</td><td><div></div></td></tr><tr><td style="font-weight:bold;vertical-align:top;">max-age</td><td style="vertical-align:top;">:</td><td><div></div></td></tr><tr><td style="font-weight:bold;vertical-align:top;">path</td><td style="vertical-align:top;">:</td><td><div></div></td></tr><tr><td style="font-weight:bold;vertical-align:top;">secure</td><td style="vertical-align:top;">:</td><td><div></div></td></tr><tr><td style="font-weight:bold;vertical-align:top;">version</td><td style="vertical-align:top;">:</td><td><div></div></td></tr></table></div></td></tr><tr><td style="font-weight:bold;vertical-align:top;">session_id_test</td><td style="vertical-align:top;">:</td><td><div>127.0.0.1-d836bea8-bf01-4fd7-8cd0-a3a625998928<table><tr><td style="font-weight:bold;vertical-align:top;">comment</td><td style="vertical-align:top;">:</td><td><div></div></td></tr><tr><td style="font-weight:bold;vertical-align:top;">domain</td><td style="vertical-align:top;">:</td><td><div></div></td></tr><tr><td style="font-weight:bold;vertical-align:top;">expires</td><td style="vertical-align:top;">:</td><td><div></div></td></tr><tr><td style="font-weight:bold;vertical-align:top;">httponly</td><td style="vertical-align:top;">:</td><td><div></div></td></tr><tr><td style="font-weight:bold;vertical-align:top;">max-age</td><td style="vertical-align:top;">:</td><td><div></div></td></tr><tr><td style="font-weight:bold;vertical-align:top;">path</td><td style="vertical-align:top;">:</td><td><div></div></td></tr><tr><td style="font-weight:bold;vertical-align:top;">secure</td><td style="vertical-align:top;">:</td><td><div></div></td></tr><tr><td style="font-weight:bold;vertical-align:top;">version</td><td style="vertical-align:top;">:</td><td><div></div></td></tr></table></div></td></tr><tr><td style="font-weight:bold;vertical-align:top;">session_id_welcome</td><td style="vertical-align:top;">:</td><td><div>127.0.0.1-c58543cd-5765-4845-a436-2736593100e9<table><tr><td style="font-weight:bold;vertical-align:top;">comment</td><td style="vertical-align:top;">:</td><td><div></div></td></tr><tr><td style="font-weight:bold;vertical-align:top;">domain</td><td style="vertical-align:top;">:</td><td><div></div></td></tr><tr><td style="font-weight:bold;vertical-align:top;">expires</td><td style="vertical-align:top;">:</td><td><div></div></td></tr><tr><td style="font-weight:bold;vertical-align:top;">httponly</td><td style="vertical-align:top;">:</td><td><div></div></td></tr><tr><td style="font-weight:bold;vertical-align:top;">max-age</td><td style="vertical-align:top;">:</td><td><div></div></td></tr><tr><td style="font-weight:bold;vertical-align:top;">path</td><td style="vertical-align:top;">:</td><td><div></div></td></tr><tr><td style="font-weight:bold;vertical-align:top;">secure</td><td style="vertical-align:top;">:</td><td><div></div></td></tr><tr><td style="font-weight:bold;vertical-align:top;">version</td><td style="vertical-align:top;">:</td><td><div></div></td></tr></table></div></td></tr></table></div></td></tr><tr><td style="font-weight:bold;vertical-align:top;">env</td><td style="vertical-align:top;">:</td><td><div><table><tr><td style="font-weight:bold;vertical-align:top;">HTTP_ACCEPT</td><td style="vertical-align:top;">:</td><td><div>text/html,application/xhtml+xml,application/xml;q=0.9,image/webp,*/*;q=0.8</div></td></tr><tr><td style="font-weight:bold;vertical-align:top;">HTTP_ACCEPT_ENCODING</td><td style="vertical-align:top;">:</td><td><div>gzip, deflate, sdch</div></td></tr><tr><td style="font-weight:bold;vertical-align:top;">HTTP_ACCEPT_LANGUAGE</td><td style="vertical-align:top;">:</td><td><div>en,en-US;q=0.8,en-GB;q=0.6</div></td></tr><tr><td style="font-weight:bold;vertical-align:top;">HTTP_CONNECTION</td><td style="vertical-align:top;">:</td><td><div>keep-alive</div></td></tr><tr><td style="font-weight:bold;vertical-align:top;">HTTP_COOKIE</td><td style="vertical-align:top;">:</td><td><div>session_id_welcome=127.0.0.1-c58543cd-5765-4845-a436-2736593100e9; session_id_test=127.0.0.1-d836bea8-bf01-4fd7-8cd0-a3a625998928; session_id_admin=127.0.0.1-beff7b5d-47b8-4d5f-b5b5-fa1b56942bdf; session_id_edify=127.0.0.1-0a73c8e2-622f-4edc-aba1-38e7d5ce3d48</div></td></tr><tr><td style="font-weight:bold;vertical-align:top;">HTTP_HOST</td><td style="vertical-align:top;">:</td><td><div>localhost:8000</div></td></tr><tr><td style="font-weight:bold;vertical-align:top;">HTTP_REFERER</td><td style="vertical-align:top;">:</td><td><div>http://localhost:8000/edify/course/main/52</div></td></tr><tr><td style="font-weight:bold;vertical-align:top;">HTTP_UPGRADE_INSECURE_REQUESTS</td><td style="vertical-align:top;">:</td><td><div>1</div></td></tr><tr><td style="font-weight:bold;vertical-align:top;">HTTP_USER_AGENT</td><td style="vertical-align:top;">:</td><td><div>Mozilla/5.0 (Macintosh; Intel Mac OS X 10_11_0) AppleWebKit/537.36 (KHTML, like Gecko) Chrome/46.0.2490.86 Safari/537.36</div></td></tr><tr><td style="font-weight:bold;vertical-align:top;">PATH_INFO</td><td style="vertical-align:top;">:</td><td><div>/edify/course/main/52</div></td></tr><tr><td style="font-weight:bold;vertical-align:top;">QUERY_STRING</td><td style="vertical-align:top;">:</td><td><div></div></td></tr><tr><td style="font-weight:bold;vertical-align:top;">REMOTE_ADDR</td><td style="vertical-align:top;">:</td><td><div>127.0.0.1</div></td></tr><tr><td style="font-weight:bold;vertical-align:top;">REMOTE_PORT</td><td style="vertical-align:top;">:</td><td><div>62026</div></td></tr><tr><td style="font-weight:bold;vertical-align:top;">REQUEST_METHOD</td><td style="vertical-align:top;">:</td><td><div>GET</div></td></tr><tr><td style="font-weight:bold;vertical-align:top;">SCRIPT_NAME</td><td style="vertical-align:top;">:</td><td><div></div></td></tr><tr><td style="font-weight:bold;vertical-align:top;">SERVER_NAME</td><td style="vertical-align:top;">:</td><td><div>Aditya-Gaykars-MacBook-Pro.local</div></td></tr><tr><td style="font-weight:bold;vertical-align:top;">SERVER_PORT</td><td style="vertical-align:top;">:</td><td><div>8000</div></td></tr><tr><td style="font-weight:bold;vertical-align:top;">SERVER_PROTOCOL</td><td style="vertical-align:top;">:</td><td><div>HTTP/1.1</div></td></tr><tr><td style="font-weight:bold;vertical-align:top;">SERVER_SOFTWARE</td><td style="vertical-align:top;">:</td><td><div>Rocket 1.2.6</div></td></tr><tr><td style="font-weight:bold;vertical-align:top;">app_folders</td><td style="vertical-align:top;">:</td><td><div>set([&#x27;/Users/adityagaykar/Dropbox/Development/MtechCSE/Sem1/SCE/hackathon-github/web2py/applications/admin/&#x27;, &#x27;/Users/adityagaykar/Dropbox/Development/MtechCSE/Sem1/SCE/hackathon-github/web2py/applications/welcome/&#x27;, &#x27;/Users/adityagaykar/Dropbox/Development/MtechCSE/Sem1/SCE/hackathon-github/web2py/applications/Test/&#x27;, &#x27;/Users/adityagaykar/Dropbox/Development/MtechCSE/Sem1/SCE/hackathon-github/web2py/applications/edify/&#x27;])</div></td></tr><tr><td style="font-weight:bold;vertical-align:top;">applications_parent</td><td style="vertical-align:top;">:</td><td><div>/Users/adityagaykar/Dropbox/Development/MtechCSE/Sem1/SCE/hackathon-github/web2py</div></td></tr><tr><td style="font-weight:bold;vertical-align:top;">cmd_args</td><td style="vertical-align:top;">:</td><td><div><table><tr><td><div>p</div></td></tr><tr><td><div>8000</div></td></tr></table></div></td></tr><tr><td style="font-weight:bold;vertical-align:top;">cmd_options</td><td style="vertical-align:top;">:</td><td><div>&lt;Values at 0x1041e9488: {&#x27;verbose&#x27;: False, &#x27;ip&#x27;: &#x27;127.0.0.1&#x27;, &#x27;debuglevel&#x27;: 30, &#x27;with_scheduler&#x27;: False, &#x27;ips&#x27;: [&#x27;fe80::ca2a:14ff:fe04:5c0a%en0&#x27;, &#x27;10.1.131.147&#x27;], &#x27;shutdown_timeout&#x27;: 5, &#x27;taskbar&#x27;: False, &#x27;with_coverage&#x27;: False, &#x27;scheduler_groups&#x27;: None, &#x27;port&#x27;: 8000, &#x27;maxthreads&#x27;: None, &#x27;softcron&#x27;: False, &#x27;server_name&#x27;: &#x27;127.0.0.1&#x27;, &#x27;bpython&#x27;: False, &#x27;nogui&#x27;: False, &#x27;pid_filename&#x27;: &#x27;httpserver.pid&#x27;, &#x27;print_errors&#x27;: False, &#x27;extcron&#x27;: False, &#x27;runcron&#x27;: False, &#x27;run_system_tests&#x27;: False, &#x27;test&#x27;: None, &#x27;folder&#x27;: &#x27;/Users/adityagaykar/Dropbox/Development/MtechCSE/Sem1/SCE/hackathon-github/web2py&#x27;, &#x27;config&#x27;: &#x27;&#x27;, &#x27;minthreads&#x27;: None, &#x27;shell&#x27;: None, &#x27;run&#x27;: &#x27;&#x27;, &#x27;log_filename&#x27;: &#x27;httpserver.log&#x27;, &#x27;profiler_dir&#x27;: None, &#x27;args&#x27;: [&#x27;&#x27;], &#x27;socket_timeout&#x27;: 5, &#x27;ssl_ca_certificate&#x27;: None, &#x27;scheduler&#x27;: None, &#x27;interfaces&#x27;: None, &#x27;ssl_private_key&#x27;: &#x27;&#x27;, &#x27;gae&#x27;: None, &#x27;password&#x27;: &#x27;test&#x27;, &#x27;request_queue_size&#x27;: 5, &#x27;ssl_certificate&#x27;: &#x27;&#x27;, &#x27;cronjob&#x27;: False, &#x27;numthreads&#x27;: None, &#x27;quiet&#x27;: False, &#x27;import_models&#x27;: False, &#x27;timeout&#x27;: 10, &#x27;plain&#x27;: False, &#x27;nobanner&#x27;: False}&gt;</div></td></tr><tr><td style="font-weight:bold;vertical-align:top;">db_sessions</td><td style="vertical-align:top;">:</td><td><div>set([])</div></td></tr><tr><td style="font-weight:bold;vertical-align:top;">debugging</td><td style="vertical-align:top;">:</td><td><div>True</div></td></tr><tr><td style="font-weight:bold;vertical-align:top;">gluon_parent</td><td style="vertical-align:top;">:</td><td><div>/Users/adityagaykar/Dropbox/Development/MtechCSE/Sem1/SCE/hackathon-github/web2py</div></td></tr><tr><td style="font-weight:bold;vertical-align:top;">http_accept</td><td style="vertical-align:top;">:</td><td><div>text/html,application/xhtml+xml,application/xml;q=0.9,image/webp,*/*;q=0.8</div></td></tr><tr><td style="font-weight:bold;vertical-align:top;">http_accept_encoding</td><td style="vertical-align:top;">:</td><td><div>gzip, deflate, sdch</div></td></tr><tr><td style="font-weight:bold;vertical-align:top;">http_accept_language</td><td style="vertical-align:top;">:</td><td><div>en,en-US;q=0.8,en-GB;q=0.6</div></td></tr><tr><td style="font-weight:bold;vertical-align:top;">http_connection</td><td style="vertical-align:top;">:</td><td><div>keep-alive</div></td></tr><tr><td style="font-weight:bold;vertical-align:top;">http_cookie</td><td style="vertical-align:top;">:</td><td><div>session_id_welcome=127.0.0.1-c58543cd-5765-4845-a436-2736593100e9; session_id_test=127.0.0.1-d836bea8-bf01-4fd7-8cd0-a3a625998928; session_id_admin=127.0.0.1-beff7b5d-47b8-4d5f-b5b5-fa1b56942bdf; session_id_edify=127.0.0.1-0a73c8e2-622f-4edc-aba1-38e7d5ce3d48</div></td></tr><tr><td style="font-weight:bold;vertical-align:top;">http_host</td><td style="vertical-align:top;">:</td><td><div>localhost:8000</div></td></tr><tr><td style="font-weight:bold;vertical-align:top;">http_referer</td><td style="vertical-align:top;">:</td><td><div>http://localhost:8000/edify/course/main/52</div></td></tr><tr><td style="font-weight:bold;vertical-align:top;">http_upgrade_insecure_requests</td><td style="vertical-align:top;">:</td><td><div>1</div></td></tr><tr><td style="font-weight:bold;vertical-align:top;">http_user_agent</td><td style="vertical-align:top;">:</td><td><div>Mozilla/5.0 (Macintosh; Intel Mac OS X 10_11_0) AppleWebKit/537.36 (KHTML, like Gecko) Chrome/46.0.2490.86 Safari/537.36</div></td></tr><tr><td style="font-weight:bold;vertical-align:top;">is_jython</td><td style="vertical-align:top;">:</td><td><div>False</div></td></tr><tr><td style="font-weight:bold;vertical-align:top;">is_pypy</td><td style="vertical-align:top;">:</td><td><div>False</div></td></tr><tr><td style="font-weight:bold;vertical-align:top;">is_source</td><td style="vertical-align:top;">:</td><td><div>True</div></td></tr><tr><td style="font-weight:bold;vertical-align:top;">local_hosts</td><td style="vertical-align:top;">:</td><td><div><table><tr><td><div>fe80::ca2a:14ff:fe04:5c0a%en0</div></td></tr><tr><td><div>10.1.131.147</div></td></tr><tr><td><div>::ffff:127.0.0.1</div></td></tr><tr><td><div>::1</div></td></tr><tr><td><div>aditya-gaykars-macbook-pro.local</div></td></tr><tr><td><div>127.0.0.1</div></td></tr><tr><td><div>Aditya-Gaykars-MacBook-Pro.local</div></td></tr></table></div></td></tr><tr><td style="font-weight:bold;vertical-align:top;">path_info</td><td style="vertical-align:top;">:</td><td><div>/edify/course/main/52</div></td></tr><tr><td style="font-weight:bold;vertical-align:top;">query_string</td><td style="vertical-align:top;">:</td><td><div></div></td></tr><tr><td style="font-weight:bold;vertical-align:top;">remote_addr</td><td style="vertical-align:top;">:</td><td><div>127.0.0.1</div></td></tr><tr><td style="font-weight:bold;vertical-align:top;">remote_port</td><td style="vertical-align:top;">:</td><td><div>62026</div></td></tr><tr><td style="font-weight:bold;vertical-align:top;">request_method</td><td style="vertical-align:top;">:</td><td><div>GET</div></td></tr><tr><td style="font-weight:bold;vertical-align:top;">request_uri</td><td style="vertical-align:top;">:</td><td><div>/edify/course/main/52</div></td></tr><tr><td style="font-weight:bold;vertical-align:top;">script_name</td><td style="vertical-align:top;">:</td><td><div></div></td></tr><tr><td style="font-weight:bold;vertical-align:top;">server_name</td><td style="vertical-align:top;">:</td><td><div>Aditya-Gaykars-MacBook-Pro.local</div></td></tr><tr><td style="font-weight:bold;vertical-align:top;">server_port</td><td style="vertical-align:top;">:</td><td><div>8000</div></td></tr><tr><td style="font-weight:bold;vertical-align:top;">server_protocol</td><td style="vertical-align:top;">:</td><td><div>HTTP/1.1</div></td></tr><tr><td style="font-weight:bold;vertical-align:top;">server_software</td><td style="vertical-align:top;">:</td><td><div>Rocket 1.2.6</div></td></tr><tr><td style="font-weight:bold;vertical-align:top;">web2py_path</td><td style="vertical-align:top;">:</td><td><div>/Users/adityagaykar/Dropbox/Development/MtechCSE/Sem1/SCE/hackathon-github/web2py</div></td></tr><tr><td style="font-weight:bold;vertical-align:top;">web2py_version</td><td style="vertical-align:top;">:</td><td><div>2.12.3-stable+timestamp.2015.08.19.00.18.03</div></td></tr><tr><td style="font-weight:bold;vertical-align:top;">wsgi.errors</td><td style="vertical-align:top;">:</td><td><div>&lt;open file &#x27;&lt;stderr&gt;&#x27;, mode &#x27;w&#x27; at 0x10028e1e0&gt;</div></td></tr><tr><td style="font-weight:bold;vertical-align:top;">wsgi.file_wrapper</td><td style="vertical-align:top;">:</td><td><div>&lt;class wsgiref.util.FileWrapper at 0x103ec1120&gt;</div></td></tr><tr><td style="font-weight:bold;vertical-align:top;">wsgi.input</td><td style="vertical-align:top;">:</td><td><div>&lt;socket._fileobject object at 0x107087bd0&gt;</div></td></tr><tr><td style="font-weight:bold;vertical-align:top;">wsgi.multiprocess</td><td style="vertical-align:top;">:</td><td><div>False</div></td></tr><tr><td style="font-weight:bold;vertical-align:top;">wsgi.multithread</td><td style="vertical-align:top;">:</td><td><div>True</div></td></tr><tr><td style="font-weight:bold;vertical-align:top;">wsgi.run_once</td><td style="vertical-align:top;">:</td><td><div>False</div></td></tr><tr><td style="font-weight:bold;vertical-align:top;">wsgi.url_scheme</td><td style="vertical-align:top;">:</td><td><div>http</div></td></tr><tr><td style="font-weight:bold;vertical-align:top;">wsgi.version</td><td style="vertical-align:top;">:</td><td><div><table><tr><td><div>1</div></td></tr><tr><td><div>0</div></td></tr></table></div></td></tr><tr><td style="font-weight:bold;vertical-align:top;">wsgi_errors</td><td style="vertical-align:top;">:</td><td><div>&lt;open file &#x27;&lt;stderr&gt;&#x27;, mode &#x27;w&#x27; at 0x10028e1e0&gt;</div></td></tr><tr><td style="font-weight:bold;vertical-align:top;">wsgi_file_wrapper</td><td style="vertical-align:top;">:</td><td><div>&lt;class wsgiref.util.FileWrapper at 0x103ec1120&gt;</div></td></tr><tr><td style="font-weight:bold;vertical-align:top;">wsgi_input</td><td style="vertical-align:top;">:</td><td><div>&lt;socket._fileobject object at 0x107087bd0&gt;</div></td></tr><tr><td style="font-weight:bold;vertical-align:top;">wsgi_multiprocess</td><td style="vertical-align:top;">:</td><td><div>False</div></td></tr><tr><td style="font-weight:bold;vertical-align:top;">wsgi_multithread</td><td style="vertical-align:top;">:</td><td><div>True</div></td></tr><tr><td style="font-weight:bold;vertical-align:top;">wsgi_run_once</td><td style="vertical-align:top;">:</td><td><div>False</div></td></tr><tr><td style="font-weight:bold;vertical-align:top;">wsgi_url_scheme</td><td style="vertical-align:top;">:</td><td><div>http</div></td></tr><tr><td style="font-weight:bold;vertical-align:top;">wsgi_version</td><td style="vertical-align:top;">:</td><td><div><table><tr><td><div>1</div></td></tr><tr><td><div>0</div></td></tr></table></div></td></tr></table></div></td></tr><tr><td style="font-weight:bold;vertical-align:top;">extension</td><td style="vertical-align:top;">:</td><td><div>html</div></td></tr><tr><td style="font-weight:bold;vertical-align:top;">folder</td><td style="vertical-align:top;">:</td><td><div>/Users/adityagaykar/Dropbox/Development/MtechCSE/Sem1/SCE/hackathon-github/web2py/applications/edify/</div></td></tr><tr><td style="font-weight:bold;vertical-align:top;">function</td><td style="vertical-align:top;">:</td><td><div>main</div></td></tr><tr><td style="font-weight:bold;vertical-align:top;">global_settings</td><td style="vertical-align:top;">:</td><td><div><table><tr><td style="font-weight:bold;vertical-align:top;">app_folders</td><td style="vertical-align:top;">:</td><td><div>set([&#x27;/Users/adityagaykar/Dropbox/Development/MtechCSE/Sem1/SCE/hackathon-github/web2py/applications/admin/&#x27;, &#x27;/Users/adityagaykar/Dropbox/Development/MtechCSE/Sem1/SCE/hackathon-github/web2py/applications/welcome/&#x27;, &#x27;/Users/adityagaykar/Dropbox/Development/MtechCSE/Sem1/SCE/hackathon-github/web2py/applications/Test/&#x27;, &#x27;/Users/adityagaykar/Dropbox/Development/MtechCSE/Sem1/SCE/hackathon-github/web2py/applications/edify/&#x27;])</div></td></tr><tr><td style="font-weight:bold;vertical-align:top;">applications_parent</td><td style="vertical-align:top;">:</td><td><div>/Users/adityagaykar/Dropbox/Development/MtechCSE/Sem1/SCE/hackathon-github/web2py</div></td></tr><tr><td style="font-weight:bold;vertical-align:top;">cmd_args</td><td style="vertical-align:top;">:</td><td><div><table><tr><td><div>p</div></td></tr><tr><td><div>8000</div></td></tr></table></div></td></tr><tr><td style="font-weight:bold;vertical-align:top;">cmd_options</td><td style="vertical-align:top;">:</td><td><div>&lt;Values at 0x1041e9488: {&#x27;verbose&#x27;: False, &#x27;ip&#x27;: &#x27;127.0.0.1&#x27;, &#x27;debuglevel&#x27;: 30, &#x27;with_scheduler&#x27;: False, &#x27;ips&#x27;: [&#x27;fe80::ca2a:14ff:fe04:5c0a%en0&#x27;, &#x27;10.1.131.147&#x27;], &#x27;shutdown_timeout&#x27;: 5, &#x27;taskbar&#x27;: False, &#x27;with_coverage&#x27;: False, &#x27;scheduler_groups&#x27;: None, &#x27;port&#x27;: 8000, &#x27;maxthreads&#x27;: None, &#x27;softcron&#x27;: False, &#x27;server_name&#x27;: &#x27;127.0.0.1&#x27;, &#x27;bpython&#x27;: False, &#x27;nogui&#x27;: False, &#x27;pid_filename&#x27;: &#x27;httpserver.pid&#x27;, &#x27;print_errors&#x27;: False, &#x27;extcron&#x27;: False, &#x27;runcron&#x27;: False, &#x27;run_system_tests&#x27;: False, &#x27;test&#x27;: None, &#x27;folder&#x27;: &#x27;/Users/adityagaykar/Dropbox/Development/MtechCSE/Sem1/SCE/hackathon-github/web2py&#x27;, &#x27;config&#x27;: &#x27;&#x27;, &#x27;minthreads&#x27;: None, &#x27;shell&#x27;: None, &#x27;run&#x27;: &#x27;&#x27;, &#x27;log_filename&#x27;: &#x27;httpserver.log&#x27;, &#x27;profiler_dir&#x27;: None, &#x27;args&#x27;: [&#x27;&#x27;], &#x27;socket_timeout&#x27;: 5, &#x27;ssl_ca_certificate&#x27;: None, &#x27;scheduler&#x27;: None, &#x27;interfaces&#x27;: None, &#x27;ssl_private_key&#x27;: &#x27;&#x27;, &#x27;gae&#x27;: None, &#x27;password&#x27;: &#x27;test&#x27;, &#x27;request_queue_size&#x27;: 5, &#x27;ssl_certificate&#x27;: &#x27;&#x27;, &#x27;cronjob&#x27;: False, &#x27;numthreads&#x27;: None, &#x27;quiet&#x27;: False, &#x27;import_models&#x27;: False, &#x27;timeout&#x27;: 10, &#x27;plain&#x27;: False, &#x27;nobanner&#x27;: False}&gt;</div></td></tr><tr><td style="font-weight:bold;vertical-align:top;">db_sessions</td><td style="vertical-align:top;">:</td><td><div>set([])</div></td></tr><tr><td style="font-weight:bold;vertical-align:top;">debugging</td><td style="vertical-align:top;">:</td><td><div>True</div></td></tr><tr><td style="font-weight:bold;vertical-align:top;">gluon_parent</td><td style="vertical-align:top;">:</td><td><div>/Users/adityagaykar/Dropbox/Development/MtechCSE/Sem1/SCE/hackathon-github/web2py</div></td></tr><tr><td style="font-weight:bold;vertical-align:top;">is_jython</td><td style="vertical-align:top;">:</td><td><div>False</div></td></tr><tr><td style="font-weight:bold;vertical-align:top;">is_pypy</td><td style="vertical-align:top;">:</td><td><div>False</div></td></tr><tr><td style="font-weight:bold;vertical-align:top;">is_source</td><td style="vertical-align:top;">:</td><td><div>True</div></td></tr><tr><td style="font-weight:bold;vertical-align:top;">local_hosts</td><td style="vertical-align:top;">:</td><td><div><table><tr><td><div>fe80::ca2a:14ff:fe04:5c0a%en0</div></td></tr><tr><td><div>10.1.131.147</div></td></tr><tr><td><div>::ffff:127.0.0.1</div></td></tr><tr><td><div>::1</div></td></tr><tr><td><div>aditya-gaykars-macbook-pro.local</div></td></tr><tr><td><div>127.0.0.1</div></td></tr><tr><td><div>Aditya-Gaykars-MacBook-Pro.local</div></td></tr></table></div></td></tr><tr><td style="font-weight:bold;vertical-align:top;">web2py_version</td><td style="vertical-align:top;">:</td><td><div>2.12.3-stable+timestamp.2015.08.19.00.18.03</div></td></tr></table></div></td></tr><tr><td style="font-weight:bold;vertical-align:top;">is_https</td><td style="vertical-align:top;">:</td><td><div>False</div></td></tr><tr><td style="font-weight:bold;vertical-align:top;">is_local</td><td style="vertical-align:top;">:</td><td><div>True</div></td></tr><tr><td style="font-weight:bold;vertical-align:top;">is_restful</td><td style="vertical-align:top;">:</td><td><div>False</div></td></tr><tr><td style="font-weight:bold;vertical-align:top;">is_sheduler</td><td style="vertical-align:top;">:</td><td><div>None</div></td></tr><tr><td style="font-weight:bold;vertical-align:top;">is_shell</td><td style="vertical-align:top;">:</td><td><div>None</div></td></tr><tr><td style="font-weight:bold;vertical-align:top;">now</td><td style="vertical-align:top;">:</td><td><div>datetime.datetime(2015, 11, 18, 12, 19, 36, 434037)</div></td></tr><tr><td style="font-weight:bold;vertical-align:top;">raw_args</td><td style="vertical-align:top;">:</td><td><div>52</div></td></tr><tr><td style="font-weight:bold;vertical-align:top;">raw_extension</td><td style="vertical-align:top;">:</td><td><div>None</div></td></tr><tr><td style="font-weight:bold;vertical-align:top;">url</td><td style="vertical-align:top;">:</td><td><div>/edify/course/main/52</div></td></tr><tr><td style="font-weight:bold;vertical-align:top;">utcnow</td><td style="vertical-align:top;">:</td><td><div>datetime.datetime(2015, 11, 18, 6, 49, 36, 434048)</div></td></tr><tr><td style="font-weight:bold;vertical-align:top;">wsgi</td><td style="vertical-align:top;">:</td><td><div>&lt;gluon.main.LazyWSGI object at 0x107246e10&gt;</div></td></tr></table></div>'
tRp70
sS'frames'
p71
(lp72
(dp73
S'file'
p74
S'/Users/adityagaykar/Dropbox/Development/MtechCSE/Sem1/SCE/hackathon-github/web2py/gluon/restricted.py'
p75
sS'dump'
p76
(dp77
S'code'
p78
S"'import time,datetime\\n\\nPOST_PER_PAGE=6\\n\\n@auth.req...\\n\\n\\n\\n\\n\\n\\n\\n\\n\\n\\nresponse._vars=response._caller(main)\\n'"
p79
sS'layer'
p80
S"'/Users/adityagaykar/Dropbox/Development/MtechCSE...b/web2py/applications/edify/controllers/course.py'"
p81
sS'global compile2'
p82
S'<function compile2>'
p83
sS'ccode'
p84
S'undefined'
p85
ssS'lnum'
p86
I226
sS'lines'
p87
(dp88
I224
S'            ccode = code'
p89
sI225
S'        else:'
p90
sI226
S'            ccode = compile2(code, layer)'
p91
sI227
S'        exec ccode in environment'
p92
sI228
S'    except HTTP:'
p93
sI229
S'        raise'
p94
sI230
S'    except RestrictedError:'
p95
sI221
S"    environment['__name__'] = '__restricted__'"
p96
sI222
S'    try:'
p97
sI223
S'        if isinstance(code, types.CodeType):'
p98
ssS'call'
p99
S"(code='import time,datetime\\n\\nPOST_PER_PAGE=6\\n\\n@auth.req...\\n\\n\\n\\n\\n\\n\\n\\n\\n\\n\\nresponse._vars=response._caller(main)\\n', environment={'A': <class 'gluon.html.A'>, 'ANY_OF': <class 'gluon.validators.ANY_OF'>, 'ASSIGNJS': <function ASSIGNJS>, 'AppConfig': <function AppConfig>, 'Auth': <class 'gluon.tools.Auth'>, 'B': <class 'gluon.html.B'>, 'BEAUTIFY': <class 'gluon.html.BEAUTIFY'>, 'BODY': <class 'gluon.html.BODY'>, 'BR': <class 'gluon.html.BR'>, 'BUTTON': <class 'gluon.html.BUTTON'>, ...}, layer='/Users/adityagaykar/Dropbox/Development/MtechCSE...b/web2py/applications/edify/controllers/course.py')"
p100
sS'func'
p101
S'restricted'
p102
sa(dp103
g74
S'/Users/adityagaykar/Dropbox/Development/MtechCSE/Sem1/SCE/hackathon-github/web2py/gluon/restricted.py'
p104
sg76
(dp105
S'builtincompile'
p106
S'<built-in function compile>'
p107
sS'code'
p108
S"'import time,datetime\\n\\nPOST_PER_PAGE=6\\n\\n@auth.req...\\n\\n\\n\\n\\n\\n\\n\\n\\n\\n\\nresponse._vars=response._caller(main)\\n'"
p109
sS'code.rstrip'
p110
S'<built-in method rstrip of str object>'
p111
sS').replace'
p112
g85
sS'layer'
p113
S"'/Users/adityagaykar/Dropbox/Development/MtechCSE...b/web2py/applications/edify/controllers/course.py'"
p114
ssg86
I209
sg87
(dp115
I204
S'def compile2(code, layer):'
p116
sI205
S'    """'
p117
sI206
S"    The ``+'\\\\n'`` is necessary else compile fails when code ends in a comment."
p118
sI207
S'    """'
p119
sI208
S''
sI209
S"    return compile(code.rstrip().replace('\\r\\n', '\\n') + '\\n', layer, 'exec')"
p120
sI210
S''
sI211
S''
sI212
S"def restricted(code, environment=None, layer='Unknown'):"
p121
sI213
S'    """'
p122
ssg99
S"(code='import time,datetime\\n\\nPOST_PER_PAGE=6\\n\\n@auth.req...\\n\\n\\n\\n\\n\\n\\n\\n\\n\\n\\nresponse._vars=response._caller(main)\\n', layer='/Users/adityagaykar/Dropbox/Development/MtechCSE...b/web2py/applications/edify/controllers/course.py')"
p123
sg101
S'compile2'
p124
sasS'pyver'
p125
S'Python 2.7.10: /anaconda/bin/python (prefix: /anaconda)'
p126
sS'session'
p127
g69
(S's\x89\n\x00\x00<div><table><tr><td style="font-weight:bold;vertical-align:top;">auth</td><td style="vertical-align:top;">:</td><td><div><table><tr><td style="font-weight:bold;vertical-align:top;">expiration</td><td style="vertical-align:top;">:</td><td><div>3600</div></td></tr><tr><td style="font-weight:bold;vertical-align:top;">hmac_key</td><td style="vertical-align:top;">:</td><td><div>44594656-123b-4a6f-8dd9-1f5576f754dd</div></td></tr><tr><td style="font-weight:bold;vertical-align:top;">last_visit</td><td style="vertical-align:top;">:</td><td><div>datetime.datetime(2015, 11, 18, 12, 19, 36, 434037)</div></td></tr><tr><td style="font-weight:bold;vertical-align:top;">remember_me</td><td style="vertical-align:top;">:</td><td><div>False</div></td></tr><tr><td style="font-weight:bold;vertical-align:top;">user</td><td style="vertical-align:top;">:</td><td><div><table><tr><td style="font-weight:bold;vertical-align:top;">admin_verified</td><td style="vertical-align:top;">:</td><td><div>no</div></td></tr><tr><td style="font-weight:bold;vertical-align:top;">email</td><td style="vertical-align:top;">:</td><td><div>gaykar.aditya@students.iiit.ac.in</div></td></tr><tr><td style="font-weight:bold;vertical-align:top;">first_name</td><td style="vertical-align:top;">:</td><td><div>Aditya</div></td></tr><tr><td style="font-weight:bold;vertical-align:top;">gender</td><td style="vertical-align:top;">:</td><td><div>Male</div></td></tr><tr><td style="font-weight:bold;vertical-align:top;">id</td><td style="vertical-align:top;">:</td><td><div>1L</div></td></tr><tr><td style="font-weight:bold;vertical-align:top;">last_name</td><td style="vertical-align:top;">:</td><td><div>Gaykar</div></td></tr><tr><td style="font-weight:bold;vertical-align:top;">registration_id</td><td style="vertical-align:top;">:</td><td><div></div></td></tr><tr><td style="font-weight:bold;vertical-align:top;">registration_key</td><td style="vertical-align:top;">:</td><td><div></div></td></tr><tr><td style="font-weight:bold;vertical-align:top;">reset_password_key</td><td style="vertical-align:top;">:</td><td><div></div></td></tr><tr><td style="font-weight:bold;vertical-align:top;">role</td><td style="vertical-align:top;">:</td><td><div>Admin</div></td></tr></table></div></td></tr><tr><td style="font-weight:bold;vertical-align:top;">user_groups</td><td style="vertical-align:top;">:</td><td><div><table><tr><td style="font-weight:bold;vertical-align:top;">1</td><td style="vertical-align:top;">:</td><td><div>user_1</div></td></tr></table></div></td></tr></table></div></td></tr><tr><td style="font-weight:bold;vertical-align:top;">flash</td><td style="vertical-align:top;">:</td><td><div>None</div></td></tr></table></div>'
tRp128
sS'etype'
p129
S"<type 'exceptions.SyntaxError'>"
p130
sS'date'
p131
S'Wed Nov 18 12:19:38 2015'
p132
sS'response'
p133
g69
(S's\xc7\x1e\x00\x00<div><table><tr><td style="font-weight:bold;vertical-align:top;">body</td><td style="vertical-align:top;">:</td><td><div>&lt;cStringIO.StringO object at 0x10724fce0&gt;</div></td></tr><tr><td style="font-weight:bold;vertical-align:top;">cookies</td><td style="vertical-align:top;">:</td><td><div><table><tr><td style="font-weight:bold;vertical-align:top;">session_id_edify</td><td style="vertical-align:top;">:</td><td><div>127.0.0.1-0a73c8e2-622f-4edc-aba1-38e7d5ce3d48<table><tr><td style="font-weight:bold;vertical-align:top;">comment</td><td style="vertical-align:top;">:</td><td><div></div></td></tr><tr><td style="font-weight:bold;vertical-align:top;">domain</td><td style="vertical-align:top;">:</td><td><div></div></td></tr><tr><td style="font-weight:bold;vertical-align:top;">expires</td><td style="vertical-align:top;">:</td><td><div></div></td></tr><tr><td style="font-weight:bold;vertical-align:top;">httponly</td><td style="vertical-align:top;">:</td><td><div></div></td></tr><tr><td style="font-weight:bold;vertical-align:top;">max-age</td><td style="vertical-align:top;">:</td><td><div></div></td></tr><tr><td style="font-weight:bold;vertical-align:top;">path</td><td style="vertical-align:top;">:</td><td><div>/</div></td></tr><tr><td style="font-weight:bold;vertical-align:top;">secure</td><td style="vertical-align:top;">:</td><td><div></div></td></tr><tr><td style="font-weight:bold;vertical-align:top;">version</td><td style="vertical-align:top;">:</td><td><div></div></td></tr></table></div></td></tr></table></div></td></tr><tr><td style="font-weight:bold;vertical-align:top;">delimiters</td><td style="vertical-align:top;">:</td><td><div><table><tr><td><div>{{</div></td></tr><tr><td><div>}}</div></td></tr></table></div></td></tr><tr><td style="font-weight:bold;vertical-align:top;">files</td><td style="vertical-align:top;">:</td><td><div><table></table></div></td></tr><tr><td style="font-weight:bold;vertical-align:top;">flash</td><td style="vertical-align:top;">:</td><td><div></div></td></tr><tr><td style="font-weight:bold;vertical-align:top;">form_label_separator</td><td style="vertical-align:top;">:</td><td><div></div></td></tr><tr><td style="font-weight:bold;vertical-align:top;">formstyle</td><td style="vertical-align:top;">:</td><td><div>bootstrap3_inline</div></td></tr><tr><td style="font-weight:bold;vertical-align:top;">generic_patterns</td><td style="vertical-align:top;">:</td><td><div><table><tr><td><div>*</div></td></tr></table></div></td></tr><tr><td style="font-weight:bold;vertical-align:top;">google_analytics_id</td><td style="vertical-align:top;">:</td><td><div>None</div></td></tr><tr><td style="font-weight:bold;vertical-align:top;">headers</td><td style="vertical-align:top;">:</td><td><div><table><tr><td style="font-weight:bold;vertical-align:top;">X-Powered-By</td><td style="vertical-align:top;">:</td><td><div>web2py</div></td></tr></table></div></td></tr><tr><td style="font-weight:bold;vertical-align:top;">logo</td><td style="vertical-align:top;">:</td><td><div><a class="navbar-brand" href="/edify/default/index" id="web2py-logo"><b>Edify</b>&trade;&nbsp;</a></div></td></tr><tr><td style="font-weight:bold;vertical-align:top;">menu</td><td style="vertical-align:top;">:</td><td><div><table><tr><td><div><table><tr><td><div>Home</div></td></tr><tr><td><div>False</div></td></tr><tr><td><div>/edify/default/index</div></td></tr><tr><td><div><table></table></div></td></tr></table></div></td></tr><tr><td><div><table><tr><td><div>courses</div></td></tr><tr><td><div>False</div></td></tr><tr><td><div>/edify/course/index</div></td></tr><tr><td><div><table></table></div></td></tr></table></div></td></tr></table></div></td></tr><tr><td style="font-weight:bold;vertical-align:top;">meta</td><td style="vertical-align:top;">:</td><td><div><table><tr><td style="font-weight:bold;vertical-align:top;">author</td><td style="vertical-align:top;">:</td><td><div>Your Name &lt;you@example.com&gt;</div></td></tr><tr><td style="font-weight:bold;vertical-align:top;">description</td><td style="vertical-align:top;">:</td><td><div>a cool new app</div></td></tr><tr><td style="font-weight:bold;vertical-align:top;">generator</td><td style="vertical-align:top;">:</td><td><div>Web2py Web Framework</div></td></tr><tr><td style="font-weight:bold;vertical-align:top;">keywords</td><td style="vertical-align:top;">:</td><td><div>web2py, python, framework</div></td></tr></table></div></td></tr><tr><td style="font-weight:bold;vertical-align:top;">models_to_run</td><td style="vertical-align:top;">:</td><td><div><table><tr><td><div>^\\w+\\.py$</div></td></tr><tr><td><div>^course/\\w+\\.py$</div></td></tr><tr><td><div>^course/main/\\w+\\.py$</div></td></tr></table></div></td></tr><tr><td style="font-weight:bold;vertical-align:top;">postprocessing</td><td style="vertical-align:top;">:</td><td><div><table></table></div></td></tr><tr><td style="font-weight:bold;vertical-align:top;">session_client</td><td style="vertical-align:top;">:</td><td><div>127.0.0.1</div></td></tr><tr><td style="font-weight:bold;vertical-align:top;">session_cookie_compression_level</td><td style="vertical-align:top;">:</td><td><div>None</div></td></tr><tr><td style="font-weight:bold;vertical-align:top;">session_cookie_expires</td><td style="vertical-align:top;">:</td><td><div>None</div></td></tr><tr><td style="font-weight:bold;vertical-align:top;">session_cookie_key</td><td style="vertical-align:top;">:</td><td><div>None</div></td></tr><tr><td style="font-weight:bold;vertical-align:top;">session_data_name</td><td style="vertical-align:top;">:</td><td><div>session_data_edify</div></td></tr><tr><td style="font-weight:bold;vertical-align:top;">session_file</td><td style="vertical-align:top;">:</td><td><div>&lt;open file &#x27;/Users/adityagaykar/Dropbox/Development/MtechCSE/Sem1/SCE/hackathon-github/web2py/applications/edify/sessions/1f6/1ee/127.0.0.1-0a73c8e2-622f-4edc-aba1-38e7d5ce3d48&#x27;, mode &#x27;rb+&#x27; at 0x10721ce40&gt;</div></td></tr><tr><td style="font-weight:bold;vertical-align:top;">session_filename</td><td style="vertical-align:top;">:</td><td><div>/Users/adityagaykar/Dropbox/Development/MtechCSE/Sem1/SCE/hackathon-github/web2py/applications/edify/sessions/127.0.0.1-0a73c8e2-622f-4edc-aba1-38e7d5ce3d48</div></td></tr><tr><td style="font-weight:bold;vertical-align:top;">session_hash</td><td style="vertical-align:top;">:</td><td><div>acfd65c7a361f089b6dd62ec4a185340</div></td></tr><tr><td style="font-weight:bold;vertical-align:top;">session_id</td><td style="vertical-align:top;">:</td><td><div>127.0.0.1-0a73c8e2-622f-4edc-aba1-38e7d5ce3d48</div></td></tr><tr><td style="font-weight:bold;vertical-align:top;">session_id_name</td><td style="vertical-align:top;">:</td><td><div>session_id_edify</div></td></tr><tr><td style="font-weight:bold;vertical-align:top;">session_locked</td><td style="vertical-align:top;">:</td><td><div>True</div></td></tr><tr><td style="font-weight:bold;vertical-align:top;">session_masterapp</td><td style="vertical-align:top;">:</td><td><div>edify</div></td></tr><tr><td style="font-weight:bold;vertical-align:top;">session_new</td><td style="vertical-align:top;">:</td><td><div>False</div></td></tr><tr><td style="font-weight:bold;vertical-align:top;">session_storage_type</td><td style="vertical-align:top;">:</td><td><div>file</div></td></tr><tr><td style="font-weight:bold;vertical-align:top;">status</td><td style="vertical-align:top;">:</td><td><div>200</div></td></tr><tr><td style="font-weight:bold;vertical-align:top;">subtitle</td><td style="vertical-align:top;">:</td><td><div></div></td></tr><tr><td style="font-weight:bold;vertical-align:top;">title</td><td style="vertical-align:top;">:</td><td><div>Edify</div></td></tr><tr><td style="font-weight:bold;vertical-align:top;">view</td><td style="vertical-align:top;">:</td><td><div>course/main.html</div></td></tr></table></div>'
tRp134
sS'locals'
p135
(dp136
g4
S"'/Users/adityagaykar/Dropbox/Development/MtechCSE...b/web2py/applications/edify/controllers/course.py'"
p137
sg6
S"'import time,datetime\\n\\nPOST_PER_PAGE=6\\n\\n@auth.req...\\n\\n\\n\\n\\n\\n\\n\\n\\n\\n\\nresponse._vars=response._caller(main)\\n'"
p138
sssS'traceback'
p139
S'Traceback (most recent call last):\n  File "/Users/adityagaykar/Dropbox/Development/MtechCSE/Sem1/SCE/hackathon-github/web2py/gluon/restricted.py", line 226, in restricted\n    ccode = compile2(code, layer)\n  File "/Users/adityagaykar/Dropbox/Development/MtechCSE/Sem1/SCE/hackathon-github/web2py/gluon/restricted.py", line 209, in compile2\n    return compile(code.rstrip().replace(\'\\r\\n\', \'\\n\') + \'\\n\', layer, \'exec\')\n  File "/Users/adityagaykar/Dropbox/Development/MtechCSE/Sem1/SCE/hackathon-github/web2py/applications/edify/controllers/course.py", line 431\n    if type(data[key]) != int and type(data[key]) !+ float:\n                                                  ^\nSyntaxError: invalid syntax\n'
p140
s.