(dp1
S'output'
p2
S"<type 'exceptions.NameError'> global name 'course' is not defined"
p3
sS'layer'
p4
S'/Users/adityagaykar/Dropbox/Development/MtechCSE/Sem1/SCE/hackathon-github/web2py/applications/edify/controllers/course.py'
p5
sS'code'
p6
S'import time,datetime\n\nPOST_PER_PAGE=6\n\n@auth.requires_login()\ndef index():\n#list the courses available for current year for registration\n    courses = []\n    page = request.args(0, cast=int, default=0)\n    start = page*POST_PER_PAGE\n    stop = start + POST_PER_PAGE\n    rows = db(db.course).select(limitby=(start, stop))\n    for row in rows:\n      courses.append([row.name, row.faculty.first_name + " " +  row.faculty.last_name, row.id])\n    return locals()\n\n@auth.requires_login()\ndef index_search():\n    courses = []\n    page = request.args(0, cast=int, default=0)\n    start = page*POST_PER_PAGE\n    stop = start + POST_PER_PAGE\n    search_query = request.vars.search_courses\n    rows = db(db.course.name.like(\'%\'+search_query+\'%\')).select(limitby=(start, stop))\n    for row in rows:\n        courses.append([row.name, row.faculty.first_name + " " +  row.faculty.last_name, row.id])\n    return locals()\n\n# @auth.requires_login()\n# def index():\n# \t#list the courses available for current year for registration\n# \tcourses = []\n# \trows = db(db.course).select()\n# \tfor row in rows:\n# \t\tcourses.append([row.name, row.faculty.first_name + " " +  row.faculty.last_name, row.id])\n# \treturn locals()\n\n@auth.requires_login()\ndef view():\n\tcourse_id = request.args(0)\n\trows = db(db.course.id ==course_id).select()\n\t#faculty = None\n\tif(len(rows) == 0):\n\t\tresponse.flash = "Invalid course"\n\telse:\n\t\tmessage = rows[0].name\n\t\tfaculty = rows[0].faculty.first_name + " " + rows[0].faculty.last_name\n\t\tcourse_description = rows[0].course_description\n\t\trows = db((db.course_registration.cid==course_id)&(db.course_registration.sid==auth.user.id)).select()\n\t\tif len(rows) == 0:\n\t\t\tregistered = 0\n\t\telse:\n\t\t\tregistered = 1\n\t\trows = db((db.course_ta.cid==course_id)&(db.course_ta.sid==auth.user.id)).select()\n\t\tif len(rows) == 0:\n\t\t\tis_ta = 0\n\t\telse:\n\t\t\tis_ta = 1\t\n\treturn locals()\n\n@auth.requires_login()\ndef register():\n\tcourse_id = request.args(0)\n\trows = db(db.course.id ==course_id).select()\n\t#faculty = None\n\tif(len(rows) == 0):\n\t\tresponse.flash = "Invalid course"\n\telse:\n\t\tdb.course_registration.insert(cid=course_id, sid=auth.user.id)\n\t\tdb.activity.insert(cid=course_id, sid=auth.user.id, \n\t\t\tdescription="You registered for "+course[0].name+" course.",\n\t\t\tactivity_scope="student"\n\t\t\t)\n\t\tredirect(URL("course","main/"+str(course_id)))\n\treturn locals()\n\t\t\n@auth.requires_login()\ndef unregister():\n\tcourse_id = request.args(0)\n\trows = db(db.course.id ==course_id).select()\n\tif(len(rows) == 0):\n\t\tresponse.flash = "Invalid course"\n\telse:\n\t\tdb((db.course_registration.cid==course_id)&(db.course_registration.sid==auth.user.id)).delete()\n\t\tredirect(URL("course","main/"+str(course_id)))\n\treturn locals()\n\n@auth.requires_login()\ndef ta_register():\n\tcourse_id = request.args(0)\n\trows = db(db.course.id ==course_id).select()\n\t#faculty = None\n\tif(len(rows) == 0):\n\t\tresponse.flash = "Invalid course"\n\telse:\n\t\tdb.course_ta.insert(cid=course_id, sid=auth.user.id)\n\t\t#adding activity\n\t\tdb.activity.insert(cid=course_id, sid=auth.user.id, \n\t\t\tdescription=auth.user.first_name+" "+auth.user.last_name+" requested for TAship for "+rows[0].name+" course.",\n\t\t\tactivity_scope="faculty"\n\t\t\t)\n\t\tdb.activity.insert(cid=course_id, sid=auth.user.id, \n\t\t\tdescription="You requested for TAship for "+rows[0].name+" course.",\n\t\t\tactivity_scope="student"\n\t\t\t)\n\t\tredirect(URL("course","main/"+str(course_id)))\n\treturn locals()\n\t\t\n@auth.requires_login()\ndef ta_unregister():\n\tcourse_id = request.args(0)\n\trows = db(db.course.id ==course_id).select()\n\tif(len(rows) == 0):\n\t\tresponse.flash = "Invalid course"\n\telse:\n\t\tdb((db.course_ta.cid==course_id)&(db.course_ta.sid==auth.user.id)).delete()\n\t\tdb.activity.insert(cid=course_id, sid=auth.user.id, \n\t\t\tdescription=auth.user.first_name+" "+auth.user.last_name+" left TAship for "+rows[0].name+" course.",\n\t\t\tactivity_scope="faculty"\n\t\t\t)\n\t\tdb.activity.insert(cid=course_id, sid=auth.user.id, \n\t\t\tdescription="You left TAship for "+rows[0].name+" course.",\n\t\t\tactivity_scope="student"\n\t\t\t)\n\t\tredirect(URL("course","main/"+str(course_id)))\t\t\n\treturn locals()\n\n@auth.requires_login()\ndef manage_course():\n\tcourse_id = request.args(0)\t\n\tta_requests = db((db.course_ta.cid == course_id)&(db.course_ta.approval == \'no\')).select()\n\tcourse_ta   = db((db.course_ta.cid == course_id)&(db.course_ta.approval == \'yes\')).select()\n\tif(len(ta_requests) == 0):\n\t\tcourses = db(db.course.id == course_id).select()\n\t\tmessage = courses[0].name#response.flash = "Invalid course"\n\telse:\n\t\tmessage = ta_requests[0].cid.name\n\treturn locals()\n\n@auth.requires_login()\ndef main():\n\tcourse_id = request.args(0)\n\trows = db(db.course.id ==course_id).select()\n\tif(len(rows) == 0):\n\t\tresponse.flash = "Invalid course"\n\telse:\n\t\tmessage = rows[0].name\n\t\tfaculty = rows[0].faculty\n\t\tinstructor = rows[0].faculty.first_name + " " + rows[0].faculty.last_name\n\t\tcourse_description = rows[0].course_description\n\t\trows = db((db.course_registration.cid==course_id)&(db.course_registration.sid==auth.user.id)).select()\n\t\tif len(rows) == 0:\n\t\t\tregistered = 0\t\t\t\n\t\telse:\n\t\t\tregistered = 1\n\t\trows = db((db.course_ta.cid==course_id)&(db.course_ta.sid==auth.user.id)).select()\n\t\tif len(rows) == 0:\n\t\t\tis_ta = 0\n\t\telse:\n\t\t\tis_ta = 1\n\t\trows = db((db.course_ta.cid==course_id)&(db.course_ta.sid==auth.user.id)&(db.course_ta.approval==\'yes\')).select()\n\t\tif len(rows) == 0:\n\t\t\tis_ta_approved = 0\n\t\telse:\n\t\t\tis_ta_approved = 1\n\t\trows = db((db.course_ta.cid==course_id)&(db.course_ta.sid==auth.user.id)&(db.course_ta.approval == \'yes\')).select() \n\t\tif( len(rows) == 1):\n\t\t\tta_approved = 1\n\t\telse:\n\t\t\tta_approved = 0\n\t\t# if( registered == 0 and is_ta == 0 and faculty != auth.user.id):\n\t\t# \tredirect(URL("default","index"))\n\t\ttas = db((db.course_ta.cid == course_id)&(db.course_ta.approval == \'yes\')).select()\n\treturn locals()\n\n@auth.requires_login()\ndef approve_ta():\n\tta_id =request.args(0)\n\tta_requests = db((db.course_ta.id == ta_id)).select()\n\tif(len(ta_requests) == 0):\n\t\tsession.flash = "Invalid TA"\n\telse:\n\t\tdb((db.course_ta.id == ta_id)).update(approval=\'yes\')\n\t\tdb.activity.insert(cid=ta_requests[0].cid, sid=auth.user.id, \n\t\t\tdescription=auth.user.first_name+" "+auth.user.last_name+" approved your TAship request for "+ta_requests[0].cid.name+" course.",\n\t\t\tactivity_scope="ta"\n\t\t\t)\n\t\tsession.flash = "TA request accepted successfully"\n\tredirect(URL("course","main/"+str(ta_requests[0].cid)))\n\treturn locals()\n\n@auth.requires_login()\ndef reject_ta():\n\tta_id =request.args(0)\n\tta_requests = db((db.course_ta.id == ta_id)).select()\n\tif(len(ta_requests) == 0):\n\t\tsession.flash = "Invalid TA"\n\telse:\n\t\tdb((db.course_ta.id == ta_id)).delete()\n\t\tdb.activity.insert(cid=ta_requests[0].cid, sid=auth.user.id, \n\t\t\tdescription=auth.user.first_name+" "+auth.user.last_name+" rejected your TAship request for "+ta_requests[0].cid.name+" course.",\n\t\t\tactivity_scope="ta"\n\t\t\t)\n\t\tsession.flash = "TA request rejected successfully"\n\tredirect(URL("course","main/"+str(ta_requests[0].cid)))\n\treturn locals()\n\n@auth.requires_login()\ndef home():\n\tcourse_id = request.args(0)\n\tcourse = db(db.course.id == course_id).select()\n\tif(course and len(course) == 1):\n\t\tcourse_des = course[0].course_description\t\t\t\t\n\telse:\n\t\tresponse.flash = "Invalid course" \n\treturn locals()\n\n@auth.requires_login()\ndef assignments():\n\tcourse_id = request.args(0)\n\tcourse = db(db.course.id == course_id).select()\n\tis_staff = 0\n\tif(len(course) == 0):\n\t\tresponse.flash = "Invalid course" \n\telse:\n\t\tif course[0].faculty == auth.user.id:\n\t\t\tis_staff = 1\n\t\telse:\t\t\t\n\t\t\tta_approved = db((db.course_ta.cid == course_id)&(db.course_ta.sid == auth.user.id)&(db.course_ta.approval==\'yes\')).select()\t\t\t\n\t\t\tif len(ta_approved) == 1:\n\t\t\t\tta_approved = 1\n\t\t\telse:\n\t\t\t\tta_approved = 0\n\t\tlinks = db(db.course_assignments.cid==course_id).select()\t\t\t\t\n\treturn locals()\n\n@auth.requires_login()\ndef upload_assignment():\n\tdata = request.vars\n\tcourse_id = request.args(0)\n\tcourse = db(db.course.id == course_id).select()\n\tif(len(course) == 0):\n\t\tresponse.flash = "Invalid course" \n\telse:\n\t\tdata = request.vars\n\t\tdb.course_assignments.insert(cid=course_id,sid=auth.user.id,attachment=data.assignment_file, title=data.assignment_name, deadline=data.assignment_deadline, total_marks=data.assignment_total_marks)\t\t\t\n\t\tdb.activity.insert(cid=course_id, sid=auth.user.id, \n\t\t\tdescription=auth.user.first_name+" "+auth.user.last_name+" uploaded new assignment, \\""+data.assignment_name+"\\" for "+course[0].name+" course.",\n\t\t\tactivity_scope="all"\n\t\t\t)\n\t\tsession.flash = "File uploaded successfully"\n\tredirect(URL(\'course\',\'main/\'+str(course_id)))\n\treturn locals()\n\n\n@auth.requires_login()\ndef upload_student_assignment():\n\tdata = request.vars\n\tcourse_id = request.args(0)\n\tcourse = db(db.course.id == course_id).select()\n\tif(len(course) == 0):\n\t\tresponse.flash = "Invalid course" \n\telse:\n\t\tdata = request.vars\n\t\trecent_uploads = db((db.course_assignment_upload.aid == data.assignment_id)&(db.course_assignment_upload.sid==auth.user.id)).select()\n\t\tif(len(recent_uploads) == 5):\n\t\t\tsession.flash = "Maximum upload limit exceeded"\n\t\telse:\n\t\t\tdb.course_assignment_upload.insert(aid=data.assignment_id,sid=auth.user.id,attachment=data.assignment_file)\t\t\t\n\t\t\tsession.flash = "File uploaded successfully"\n\tredirect(URL(\'course\',\'main/\'+str(course_id)))\n\treturn locals()\n\n@auth.requires_login()\ndef upload_resource():\n\tdata = request.vars\n\tcourse_id = request.args(0)\n\tcourse = db(db.course.id == course_id).select()\n\tif(len(course) == 0):\n\t\tresponse.flash = "Invalid course" \n\telse:\n\t\tdata = request.vars\n\t\tdb.course_resources.insert(cid=course_id,sid=auth.user.id,attachment=data.resource_file, title=data.resource_name)\t\t\t\n\t\tdb.activity.insert(cid=course_id, sid=auth.user.id, \n\t\t\tdescription=auth.user.first_name+" "+auth.user.last_name+" uploaded new resource, \\""+data.resource_name+"\\" for "+course[0].name+" course.",\n\t\t\tactivity_scope="all"\n\t\t\t)\n\t\tsession.flash = "File uploaded successfully"\n\tredirect(URL(\'course\',\'main/\'+str(course_id)))\n\treturn locals()\n\n@auth.requires_login()\ndef resources():\n\tcourse_id = request.args(0)\n\tcourse = db(db.course.id == course_id).select()\n\tis_staff = 0\n\tif(len(course) == 0):\n\t\tresponse.flash = "Invalid course" \n\telse:\n\t\tif course[0].faculty == auth.user.id:\n\t\t\tis_staff = 1\n\t\telse:\n\t\t\tta_approved = db((db.course_ta.cid == course_id)&(db.course_ta.sid == auth.user.id)&(db.course_ta.approval==\'yes\')).select()\t\t\t\n\t\t\tif len(ta_approved) == 1:\n\t\t\t\tta_approved = 1\n\t\t\telse:\t\n\t\t\t\tta_approved = 0\n\t\tlinks = db(db.course_resources.cid==course_id).select()\t\t\t\t\n\treturn locals()\n\n@auth.requires_login()\ndef upload():\n\tcourse_id = request.args(0)\n\tcourse = db(db.course.id == course_id).select()\n\tif(len(course) == 0):\n\t\tresponse.flash = "Invalid course"\n\telse:\t\t\n\t\tassignments = db((db.course_assignments.deadline >= datetime.datetime.now())&(db.course_assignments.cid == course_id)).select()\n\treturn locals()\n\n@auth.requires_login()\ndef marks():\n\tcourse_id = request.args(0)\n\tcourse = db(db.course.id == course_id).select()\n\tif(len(course) == 0):\n\t\tresponse.flash = "Invalid course"\n\treturn locals()\n\n\n@auth.requires_login()\ndef activity():\n\tcourse_id = request.args(0)\n\tcourse = db(db.course.id == course_id).select()\n\tif(len(course) == 0):\n\t\tresponse.flash = "Invalid course"\n\telse:\n\t\tactivities = db((db.activity.cid==course_id)&(db.activity.activity_scope==\'all\')).select(orderby=~db.activity.publish_date)\n\treturn locals()\n\n\n@auth.requires_login()\ndef approvals():\n\tcourse_id = request.args(0)\n\tcourse = db(db.course.id == course_id).select()\n\tif(len(course) == 0):\n\t\tresponse.flash = "Invalid course"\n\telse:\n\t\tta_requests = db((db.course_ta.cid == course_id)&(db.course_ta.approval == \'no\')).select()\n\t\tcourse_ta   = db((db.course_ta.cid == course_id)&(db.course_ta.approval == \'yes\')).select()\t\t\n\treturn locals()\n\n@auth.requires_login()\ndef delete_assignment():\n\tassignment_id = request.args(0)\n\tassignment_id = request.args(1)\n\tassignment = db(db.course_assignments.id == assignment_id).select()\n\tif( len(assignment) == 0):\n\t\tresponse.flash = "Invalid assignment"\n\telse:\n\t\tdb(db.course_assignments.id == assignment_id).delete()\n\t\tredirect(URL(\'course\',\'main/\'+str(course_id)))\n\n\nresponse._vars=response._caller(register)\n'
p7
sS'snapshot'
p8
(dp9
sS'traceback'
p10
S'Traceback (most recent call last):\n  File "/Users/adityagaykar/Dropbox/Development/MtechCSE/Sem1/SCE/hackathon-github/web2py/gluon/restricted.py", line 227, in restricted\n    exec ccode in environment\n  File "/Users/adityagaykar/Dropbox/Development/MtechCSE/Sem1/SCE/hackathon-github/web2py/applications/edify/controllers/course.py", line 364, in <module>\n  File "/Users/adityagaykar/Dropbox/Development/MtechCSE/Sem1/SCE/hackathon-github/web2py/gluon/globals.py", line 412, in <lambda>\n    self._caller = lambda f: f()\n  File "/Users/adityagaykar/Dropbox/Development/MtechCSE/Sem1/SCE/hackathon-github/web2py/gluon/tools.py", line 3774, in f\n    return action(*a, **b)\n  File "/Users/adityagaykar/Dropbox/Development/MtechCSE/Sem1/SCE/hackathon-github/web2py/applications/edify/controllers/course.py", line 71, in register\n    description="You registered for "+course[0].name+" course.",\nNameError: global name \'course\' is not defined\n'
p11
s.