(dp1
S'output'
p2
S"<type 'exceptions.NameError'> name 'message' is not defined"
p3
sS'layer'
p4
S'/Users/adityagaykar/Dropbox/Development/MtechCSE/Sem1/SCE/Project/web2py/applications/edify/views/course/main.html'
p5
sS'code'
p6
S'response.write(\'<!DOCTYPE html>\\n<!--[if (gt IE 9)|!(IE)]><!--> <html class="no-js" lang="\', escape=False)\nresponse.write(T.accepted_language or \'en\')\nresponse.write(\'"> <!--<![endif]-->\\n  <head>\\n    <meta charset="utf-8">\\n    <!-- www.phpied.com/conditional-comments-block-downloads/ -->\\n    <!-- Always force latest IE rendering engine\\n         (even in intranet) & Chrome Frame\\n         Remove this if you use the .htaccess -->\\n    <meta http-equiv="X-UA-Compatible" content="IE=edge\', escape=False)\nresponse.write(not request.is_local and \',chrome=1\' or \'\')\nresponse.write(\'">\\n    <!--  Mobile Viewport Fix\\n          j.mp/mobileviewport & davidbcalhoun.com/2010/viewport-metatag\\n          device-width: Occupy full width of the screen in its current orientation\\n          initial-scale = 1.0 retains dimensions instead of zooming out if page height > device height\\n          user-scalable = yes allows the user to zoom in -->\\n    <meta name="viewport" content="width=device-width, initial-scale=1.0">\\n    <title>\', escape=False)\nresponse.write(response.title or request.application)\nresponse.write(\'</title>\\n    <!-- http://dev.w3.org/html5/markup/meta.name.html -->\\n    <meta name="application-name" content="\', escape=False)\nresponse.write(request.application)\nresponse.write(\'">\\n    <!-- Speaking of Google, don\\\'t forget to set your site up:\\n         http://google.com/webmasters -->\\n    <meta name="google-site-verification" content="">\\n    <!-- include stylesheets -->\\n    <link rel="stylesheet" href="\', escape=False)\nresponse.write(URL(\'static\',\'css/bootstrap.min.css\'))\nresponse.write(\'"/>\\n    <link rel="stylesheet" href="\', escape=False)\nresponse.write(URL(\'static\',\'css/bootstrap-theme.min.css\'))\nresponse.write(\'"/>\\n    <link rel="stylesheet" href="\', escape=False)\nresponse.write(URL(\'static\',\'css/web2py-bootstrap3.css\'))\nresponse.write(\'"/>\\n    <link rel="stylesheet" href="\', escape=False)\nresponse.write(URL(\'static\',\'css/style.css\'))\nresponse.write(\'"/>\\n    <link rel="shortcut icon" href="\', escape=False)\nresponse.write(URL(\'static\',\'images/favicon.ico\'))\nresponse.write(\'" type="image/x-icon">\\n    <link rel="apple-touch-icon" href="\', escape=False)\nresponse.write(URL(\'static\',\'images/favicon.png\'))\nresponse.write(\'">\\n    <!-- All JavaScript at the bottom, except for Modernizr which enables\\n         HTML5 elements & feature detects -->\\n    <script src="\', escape=False)\nresponse.write(URL(\'static\',\'js/modernizr-2.8.3.min.js\'))\nresponse.write(\'"></script>\\n    <!--[if lt IE 9]>\\n        <script src="\', escape=False)\nresponse.write(URL(\'static\',\'js/respond-1.4.2.min.js\'))\nresponse.write(\'"></script>\\n        <![endif]-->\\n    <!-- Favicons -->\\n    \', escape=False)\nresponse.write(\'<script type="text/javascript"><!--\\n    // These variables are used by the web2py_ajax_init function in web2py_ajax.js (which is loaded below).\\n    var w2p_ajax_confirm_message = "\', escape=False)\nresponse.write(T(\'Are you sure you want to delete this object?\'))\nresponse.write(\'";\\n    var w2p_ajax_disable_with_message = "\', escape=False)\nresponse.write(T(\'Working...\'))\nresponse.write(\'";\\n    var w2p_ajax_date_format = "\', escape=False)\nresponse.write(T(\'%Y-%m-%d\'))\nresponse.write(\'";\\n    var w2p_ajax_datetime_format = "\', escape=False)\nresponse.write(T(\'%Y-%m-%d %H:%M:%S\'))\nresponse.write(\'";\\n    var ajax_error_500 = \\\'\', escape=False)\nresponse.write(T.M(\'An error occured, please [[reload %s]] the page\') % URL(args=request.args, vars=request.get_vars))\nresponse.write("\'\\n    //--></script>\\n", escape=False)\nresponse.files.insert(0,URL(\'static\',\'js/jquery.js\'))\nresponse.files.insert(1,URL(\'static\',\'css/calendar.css\'))\nresponse.files.insert(2,URL(\'static\',\'js/calendar.js\'))\nresponse.files.insert(3,URL(\'static\',\'js/web2py.js\'))\nresponse.include_meta()\nresponse.include_files()\nresponse.write(\'\\n\', escape=False)\nresponse.write(\' <!-- this includes jquery.js, calendar.js/.css and web2py.js -->\\n    \', escape=False)\nresponse.write(\'\\n    \', escape=False)\n# using sidebars need to know what sidebar you want to use\nmc0 = \'col-md-12\'\nmc1 = \'col-md-9\'\nmc2 = \'col-md-6\'\nleft_sidebar_enabled = globals().get(\'left_sidebar_enabled\', False)\nright_sidebar_enabled = globals().get(\'right_sidebar_enabled\', False)\nmiddle_column = {0: mc0, 1: mc1, 2: mc2}[\n(left_sidebar_enabled and 1 or 0)+(right_sidebar_enabled and 1 or 0)]\nresponse.write(\'\\n  </head>\\n  <body>\\n    <!--[if lt IE 8]><p class="browserupgrade">You are using an <strong>outdated</strong> browser. Please <a href="http://browsehappy.com/">upgrade your browser</a> to improve your experience.</p><![endif]-->\\n    <div class="flash alert alert-dismissable">\', escape=False)\nresponse.write(response.flash or \'\')\nresponse.write(\'</div>\\n    <!-- Navbar ======================================= -->\\n    <nav class="navbar navbar-inverse navbar-fixed-top" role="navigation">\\n      <div class="container-fluid">\\n        <div class="navbar-header">\\n          <button type="button" class="navbar-toggle" data-toggle="collapse" data-target=".navbar-collapse">\\n            <span class="sr-only">Toggle navigation</span>\\n            <span class="icon-bar"></span>\\n            <span class="icon-bar"></span>\\n            <span class="icon-bar"></span>\\n          </button>\\n          \', escape=False)\nresponse.write(response.logo or \'\')\nresponse.write(\'\\n        </div>\\n        <div class="collapse navbar-collapse navbar-ex1-collapse">\\n        \', escape=False)\nif auth.user:\n    response.write(\'\\n          <ul class="nav navbar-nav navbar-right">          \\n            \', escape=False)\n    response.write(\'auth\' in globals() and auth.navbar(\'Welcome\',mode=\'dropdown\',referrer_actions=None) or \'\')\n    response.write(\'\\n          </ul>\\n        \', escape=False)\n    pass\nresponse.write(\'\\n        \', escape=False)\nif auth.user and auth.user.role==\'Admin\':\n    response.write(\'\\n          <ul class="nav navbar-nav navbar-right">\\n            <li>\', escape=False)\n    response.write(A("Admin", _href="/edify/default/admin/"))\n    response.write(\'</li>\\n          </ul>\\n        \', escape=False)\n    pass\nresponse.write(\'\\n          \', escape=False)\nif response.menu and auth.user:\n    response.write(\'\\n          \', escape=False)\n    response.write(MENU(response.menu, _class=\'nav navbar-nav\',li_class=\'dropdown\',ul_class=\'dropdown-menu\'))\n    response.write(\'\\n          \', escape=False)\n    pass\nresponse.write(\'\\n        </div>\\n      </div>\\n    </nav>\\n    <!-- Masthead ===================================== -->    \\n    <!--\', escape=False)\nresponse.write(\'\\n    \', escape=False)\nresponse.write(\'\\n    -->\\n    <!-- Main ========================================= -->\\n    <!-- Begin page content -->\\n    <div class="container-fluid main-container">\\n      \', escape=False)\nif left_sidebar_enabled:\n    response.write(\'\\n        <div class="col-md-3 left-sidebar">\\n            \', escape=False)\n    response.write(\'\\n            <h3>Left Sidebar</h3>\\n            <p></p>\\n            \', escape=False)\n    response.write(\'\\n        </div>\\n      \', escape=False)\n    pass\nresponse.write(\'\\n\\n      <div class="\', escape=False)\nresponse.write(middle_column)\nresponse.write(\'">        \\n        \', escape=False)\nresponse.write(\'\\n\\n\', escape=False)\nif message :\n    response.write(\'\\n<h3>\', escape=False)\n    response.write(message)\n    response.write(\'\\n\\t\\t\\t<!-- \', escape=False)\n    if registered == 0:\n        response.write(\'\\n\\t\\t\\t\\t\', escape=False)\n        response.write(A("Enroll", _href=URL("course","register/"+str(course_id)), _class="btn btn-success pull-right"))\n        response.write(\'\\t\\n\\t\\t\\t\', escape=False)\n    else:\n        response.write(\'\\n\\t\\t\\t\\t\', escape=False)\n        response.write(A("Withdraw", _href=URL("course","unregister/"+str(course_id)), _class="btn btn-danger pull-right"))\n        response.write(\'\\n\\t\\t\\t\', escape=False)\n        pass\n    response.write(\'\\n\\t\\t\\t\', escape=False)\n    if is_ta == 0:\n        response.write(\'\\n\\t\\t\\t\\t\', escape=False)\n        response.write(A("Apply for TA", _href=URL("course","ta_register/"+str(course_id)), _class="btn btn-success pull-right"))\n        response.write(\'\\t\\n\\t\\t\\t\', escape=False)\n    else:\n        response.write(\'\\n\\t\\t\\t\\t\', escape=False)\n        response.write(A("Withdraw TAship", _href=URL("course","ta_unregister/"+str(course_id)), _class="btn btn-danger pull-right"))\n        response.write(\'\\t\\n\\t\\t\\t\', escape=False)\n        pass\n    response.write(\' -->\\n</h3>\\n\', escape=False)\n    pass\nresponse.write(\'\\n<hr>\\n\\n<div class="row">\\n\\t\\t<div class="col-md-2">\\t\\t\\t\\n\\t\\t\\t\\t\\t<div class="list-group">\\n\\t\\t\\t\\t\\t\\t<a href="#" onclick="ajax(\\\'\', escape=False)\nresponse.write(URL(\'course\',\'home/\'+str(course_id)))\nresponse.write(\'\\\',[],\\\'course-panel\\\')" cid="\', escape=False)\nresponse.write(course_id)\nresponse.write(\'" class="list-group-item"><div class="glyphicon glyphicon-home"></div> Home</a>\\n\\t\\t\\t\\t\\t\\t\', escape=False)\nif registered or is_ta or auth.user.id == faculty:\n    response.write(\'\\n\\t\\t\\t\\t\\t\\t<a href="#" onclick="ajax(\\\'\', escape=False)\n    response.write(URL(\'course\',\'activity/\'+str(course_id)))\n    response.write(\'\\\',[],\\\'course-panel\\\')" cid="\', escape=False)\n    response.write(course_id)\n    response.write(\'" class="list-group-item"><div class="glyphicon glyphicon-tasks"></div> Activity</a>\\t<a href="#" onclick="ajax(\\\'\', escape=False)\n    response.write(URL(\'course\',\'assignments/\'+str(course_id)))\n    response.write(\'\\\',[],\\\'course-panel\\\')" cid="\', escape=False)\n    response.write(course_id)\n    response.write(\'" class="list-group-item"><div class="glyphicon glyphicon-pencil"></div> Assignments</a>\\n\\t\\t\\t\\t\\t\\t<a href="#" onclick="ajax(\\\'\', escape=False)\n    response.write(URL(\'course\',\'resources/\'+str(course_id)))\n    response.write(\'\\\',[],\\\'course-panel\\\')" cid="\', escape=False)\n    response.write(course_id)\n    response.write(\'" class="list-group-item"><div class="glyphicon glyphicon-list-alt"></div> Resources</a>\\n\\t\\t\\t\\t\\t\\t<a href="#" onclick="ajax(\\\'\', escape=False)\n    response.write(URL(\'course\',\'upload/\'+str(course_id)))\n    response.write(\'\\\',[],\\\'course-panel\\\')" cid="\', escape=False)\n    response.write(course_id)\n    response.write(\'" class="list-group-item"><div class="glyphicon glyphicon-upload"></div> Upload</a>\\n\\t\\t\\t\\t\\t\\t<a href="#" onclick="ajax(\\\'\', escape=False)\n    response.write(URL(\'course\',\'marks/\'+str(course_id)))\n    response.write(\'\\\',[],\\\'course-panel\\\')" cid="\', escape=False)\n    response.write(course_id)\n    response.write(\'" class="list-group-item"><div class="glyphicon glyphicon-stats"></div> Marks</a>\\n\\t\\t\\t\\t\\t\\t\', escape=False)\n    if auth.user.id == faculty:\n        response.write(\'\\t\\t\\t\\t\\t\\t\\t\\n\\t\\t\\t\\t\\t\\t\\t<a href="#" onclick="ajax(\\\'\', escape=False)\n        response.write(URL(\'course\',\'approvals/\'+str(course_id)))\n        response.write(\'\\\',[],\\\'course-panel\\\')" cid="\', escape=False)\n        response.write(course_id)\n        response.write(\'" class="list-group-item"><div class="glyphicon glyphicon-transfer"></div> Approvals</a>\\t\\t\\t\\t\\t\\t\\t\\n\\t\\t\\t\\t\\t\\t\', escape=False)\n        pass\n    response.write(\'\\n\\t\\t\\t\\t\\t\\t\', escape=False)\n    pass\nresponse.write(\'\\n\\n\\t\\t\\t\\t\\t</div>\\n\\t\\t\\t\\t\\t\\t\\t\\t\\n\\t\\t</div>\\n\\t\\t<div class="col-md-8">\\n\\t\\t\\t<div class="panel  panel-primary" id="course-panel" style="min-height: 400px;">\\t\\t\\t\\t\\t\\t\\t\\n\\t\\t\\t\\t<div class="panel-heading"><div class="glyphicon glyphicon glyphicon-home"></div> Home</div>\\n\\t\\t\\t\\t<div class="panel-body">\\n\\t\\t\\t\\tOverview\\n\\t\\t\\t\\t<hr>\\n\\t\\t\\t\\t\', escape=False)\nresponse.write(course_description)\nresponse.write(\'\\n\\t\\t\\t\\t</div>\\n\\t\\t\\t\\t\\n\\t\\t\\t</div>\\n\\t\\t</div>\\n\\t\\t<div class="col-md-2">\\n\\t\\t\\t\\n\\t\\t\\t\\t\\t<ul class="list-group">\\n\\t\\t\\t\\t\\t<a href="#" class="list-group-item list-group-item-info"><div class="glyphicon glyphicon-user"></div> Staff</a>\\n\\t\\t\\t\\t\\t<a href="#" class="list-group-item">\\t\\t\\t\\t\\t\\t\\t\\t\\t\\t\\t\\t\\t\\t\\t\\t\\n\\t\\t\\t\\t\\t\\t<div class="glyphicon glyphicon glyphicon-queen"></div>\\t\\t\\t\\t\\t\\t\\t\\t\\t\\n\\t\\t\\t\\t\\t\\t\', escape=False)\nresponse.write(instructor)\nresponse.write(\'\\t\\t\\t\\t\\t\\t\\t\\t\\t\\t\\t\\t\\n\\t\\t\\t\\t\\t</a>\\n\\t\\t\\t\\t\\t\', escape=False)\nfor ta in tas:\n    response.write(\'\\t\\t\\t\\t\\t\\t\\n\\t\\t\\t\\t\\t\\t<a href="#" class="list-group-item"><div class="glyphicon glyphicon glyphicon-knight"></div> \', escape=False)\n    response.write(ta.sid.first_name)\n    response.write(\' \', escape=False)\n    response.write(ta.sid.last_name)\n    response.write(\'</a>\\n\\t\\t\\t\\t\\t\', escape=False)\n    pass\nresponse.write(\'\\n\\t\\t\\t\\t\\t</ul>\\n\\t\\t\\t\', escape=False)\nif auth.user.role != \'faculty\' and auth.user.id != faculty:\n    response.write(\'\\t\\t\\t\\t\\t\\t\\t\\n\\t\\t\\t\\t\\t<ul class="list-group">\\n\\t\\t\\t\\t\\t<!-- <a href="#" class="list-group-item list-group-item-danger"><div class="glyphicon glyphicon-export"></div> Course</a> -->\\n\\t\\t\\t\\t\\t<!-- <a href="#" class="list-group-item">\\t\\t\\t\\t\\t\\t\\t\\t\\t\\t\\t\\t\\t\\t\\t\\t\\n\\t\\t\\t\\t\\t\\t<div class="glyphicon glyphicon glyphicon-queen"></div>\\t\\t\\t\\t\\t\\t\\t\\t\\t\\n\\t\\t\\t\\t\\t\\t\', escape=False)\n    response.write(instructor)\n    response.write(\'\\t\\t\\t\\t\\t\\t\\t\\t\\t\\t\\t\\t\\n\\t\\t\\t\\t\\t</a>\\t -->\\t\\t\\t\\t\\n\\t\\t\\t\\t\\t\', escape=False)\n    if is_ta == 0:\n        response.write(\'\\n\\t\\t\\t\\t\\t\\t\', escape=False)\n        if registered == 0:\n            response.write(\'\\n\\t\\t\\t\\t\\t\\t\\t<!-- \', escape=False)\n            response.write(A(\'Enroll\', _href=URL("course","register/"+str(course_id)), _class="list-group-item btn btn-danger"))\n            response.write("\\t -->\\n\\t\\t\\t\\t\\t\\t\\t<a href=\'", escape=False)\n            response.write(URL("course","register/"+str(course_id)))\n            response.write(\'\\\' class="list-group-item list-group-item-success"><div class="glyphicon glyphicon-import"></div> Enroll</a>\\n\\t\\t\\t\\t\\t\\t\', escape=False)\n        else:\n            response.write(\'\\n\\t\\t\\t\\t\\t\\t\\t<!-- \', escape=False)\n            response.write(A("Leave course", _href=URL("course","unregister/"+str(course_id)), _class="list-group-item"))\n            response.write("-->\\n\\t\\t\\t\\t\\t\\t\\t<a href=\'", escape=False)\n            response.write(URL("course","unregister/"+str(course_id)))\n            response.write(\'\\\' class="list-group-item list-group-item-danger"><div class="glyphicon glyphicon-export"></div> Leave course</a>\\n\\t\\t\\t\\t\\t\\t\', escape=False)\n            pass\n        response.write(\' \\n\\t\\t\\t\\t\\t\', escape=False)\n        pass\n    response.write(\'\\n\\t\\t\\t\\t\\t\', escape=False)\n    if registered == 0:\n        response.write(\'\\t\\n\\t\\t\\t\\t\\t\\t\', escape=False)\n        if is_ta == 0:\n            response.write(\'\\n\\t\\t\\t\\t\\t\\t\\t<!-- \', escape=False)\n            response.write(A("Apply for TA", _href=URL("course","ta_register/"+str(course_id)), _class="list-group-item"))\n            response.write("\\t -->\\n\\t\\t\\t\\t\\t\\t\\t<a href=\'", escape=False)\n            response.write(URL("course","ta_register/"+str(course_id)))\n            response.write(\'\\\' class="list-group-item list-group-item-success"><div class="glyphicon glyphicon-import"></div> Apply for TAship</a>\\n\\t\\t\\t\\t\\t\\t\', escape=False)\n        else:\n            response.write(\'\\n\\t\\t\\t\\t\\t\\t\\t<!-- \', escape=False)\n            response.write(A("Withdraw TAship", _href=URL("course","ta_unregister/"+str(course_id)), _class="list-group-item"))\n            response.write("\\t -->\\n\\t\\t\\t\\t\\t\\t\\t<a href=\'", escape=False)\n            response.write(URL("course","ta_unregister/"+str(course_id)))\n            response.write(\'\\\' class="list-group-item list-group-item-danger"><div class="glyphicon glyphicon-export"></div> Leave TAship</a>\\n\\t\\t\\t\\t\\t\\t\', escape=False)\n            pass\n        response.write(\'\\n\\t\\t\\t\\t\\t\', escape=False)\n        pass\n    response.write(\'\\n\\t\\t\\t\\t\\t</ul>\\n\\t\\t\\t\', escape=False)\n    pass\nresponse.write(\'\\n\\t\\t\\t\\t\\n\\t\\t</div>\\t\\n\\t\\t\\t\\n\\t</div>\\n\', escape=False)\npass\nresponse.write(\'\\n      </div>\\n\\n      \', escape=False)\nif right_sidebar_enabled:\n    response.write(\'\\n        <div class="col-md-3">\\n            \', escape=False)\n    response.write(\'\\n            <h3>Right Sidebar</h3>\\n            <p></p>\\n            \', escape=False)\n    response.write(\'\\n        </div>\\n      \', escape=False)\n    pass\nresponse.write(\'\\n\\n    </div>\\n\\n    \', escape=False)\nresponse.write(\' <!-- this is default footer -->      \\n    <footer class="footer">\\n      <div class="container-fluid">\\n        <div class="copyright pull-left">\', escape=False)\nresponse.write(T(\'Copyright\'))\nresponse.write(\' &#169; \', escape=False)\nresponse.write(request.now.year)\nresponse.write(\'</div>\\n          <div id="poweredBy" class="pull-right">\\n            \', escape=False)\nresponse.write(T(\'Powered by\'))\nresponse.write(\'\\n            <a href="http://www.web2py.com/">web2py</a>\\n          </div>\\n      </div>\\n    </footer>\\n    \', escape=False)\nresponse.write(\'\\n    <!-- The javascript =============================== -->\\n    <script src="\', escape=False)\nresponse.write(URL(\'static\',\'js/bootstrap.min.js\'))\nresponse.write(\'"></script>\\n    <script src="\', escape=False)\nresponse.write(URL(\'static\',\'js/web2py-bootstrap3.js\'))\nresponse.write(\'"></script>\\n    \', escape=False)\nresponse.write(\'\\n    \', escape=False)\nif response.google_analytics_id:\n    response.write(\'\\n    <!-- Analytics ==================================== -->\\n    <script src="\', escape=False)\n    response.write(URL(\'static\',\'js/analytics.min.js\'))\n    response.write(\'"></script>\\n    <script type="text/javascript">\\n      analytics.initialize({\\n      \\\'Google Analytics\\\':{trackingId:\\\'\', escape=False)\n    response.write(response.google_analytics_id)\n    response.write("\'}\\n      });\\n    </script>\\n    ", escape=False)\n    pass\nresponse.write(\'\\n    <!-- Share ============================y============ -->\\n    <script src="\', escape=False)\nresponse.write(URL(\'static\',\'js/share.js\',vars=dict(static=URL(\'static\',\'images\'))))\nresponse.write(\'"></script>\\n  </body>\\n</html>\\n\', escape=False)'
p7
sS'snapshot'
p8
(dp9
S'exception'
p10
(dp11
S'__hash__'
p12
S"<method-wrapper '__hash__' of exceptions.NameError object>"
p13
sS'__setattr__'
p14
S"<method-wrapper '__setattr__' of exceptions.NameError object>"
p15
sS'__reduce_ex__'
p16
S'<built-in method __reduce_ex__ of exceptions.NameError object>'
p17
sS'__getslice__'
p18
S"<method-wrapper '__getslice__' of exceptions.NameError object>"
p19
sS'__getitem__'
p20
S"<method-wrapper '__getitem__' of exceptions.NameError object>"
p21
sS'__setstate__'
p22
S'<built-in method __setstate__ of exceptions.NameError object>'
p23
sS'args'
p24
S'("name \'message\' is not defined",)'
p25
sS'__reduce__'
p26
S'<built-in method __reduce__ of exceptions.NameError object>'
p27
sS'__str__'
p28
S"<method-wrapper '__str__' of exceptions.NameError object>"
p29
sS'__format__'
p30
S'<built-in method __format__ of exceptions.NameError object>'
p31
sS'__getattribute__'
p32
S"<method-wrapper '__getattribute__' of exceptions.NameError object>"
p33
sS'__class__'
p34
S"<type 'exceptions.NameError'>"
p35
sS'__unicode__'
p36
S'<built-in method __unicode__ of exceptions.NameError object>'
p37
sS'__delattr__'
p38
S"<method-wrapper '__delattr__' of exceptions.NameError object>"
p39
sS'__subclasshook__'
p40
S'<built-in method __subclasshook__ of type object>'
p41
sS'__repr__'
p42
S"<method-wrapper '__repr__' of exceptions.NameError object>"
p43
sS'__dict__'
p44
S'{}'
p45
sS'__sizeof__'
p46
S'<built-in method __sizeof__ of exceptions.NameError object>'
p47
sS'__doc__'
p48
S"'Name not found globally.'"
p49
sS'__init__'
p50
S"<method-wrapper '__init__' of exceptions.NameError object>"
p51
sS'__new__'
p52
S'<built-in method __new__ of type object>'
p53
ssS'evalue'
p54
S"name 'message' is not defined"
p55
sS'request'
p56
cgluon.html
XML_unpickle
p57
(S's2e\x00\x00<div><table><tr><td style="font-weight:bold;vertical-align:top;">ajax</td><td style="vertical-align:top;">:</td><td><div>False</div></td></tr><tr><td style="font-weight:bold;vertical-align:top;">application</td><td style="vertical-align:top;">:</td><td><div>edify</div></td></tr><tr><td style="font-weight:bold;vertical-align:top;">args</td><td style="vertical-align:top;">:</td><td><div><table><tr><td><div>570</div></td></tr></table></div></td></tr><tr><td style="font-weight:bold;vertical-align:top;">cid</td><td style="vertical-align:top;">:</td><td><div>None</div></td></tr><tr><td style="font-weight:bold;vertical-align:top;">client</td><td style="vertical-align:top;">:</td><td><div>127.0.0.1</div></td></tr><tr><td style="font-weight:bold;vertical-align:top;">controller</td><td style="vertical-align:top;">:</td><td><div>course</div></td></tr><tr><td style="font-weight:bold;vertical-align:top;">cookies</td><td style="vertical-align:top;">:</td><td><div><table><tr><td style="font-weight:bold;vertical-align:top;">session_id_admin</td><td style="vertical-align:top;">:</td><td><div>127.0.0.1-9a038e43-77c1-44dd-8169-8c599ca9c57c<table><tr><td style="font-weight:bold;vertical-align:top;">comment</td><td style="vertical-align:top;">:</td><td><div></div></td></tr><tr><td style="font-weight:bold;vertical-align:top;">domain</td><td style="vertical-align:top;">:</td><td><div></div></td></tr><tr><td style="font-weight:bold;vertical-align:top;">expires</td><td style="vertical-align:top;">:</td><td><div></div></td></tr><tr><td style="font-weight:bold;vertical-align:top;">httponly</td><td style="vertical-align:top;">:</td><td><div></div></td></tr><tr><td style="font-weight:bold;vertical-align:top;">max-age</td><td style="vertical-align:top;">:</td><td><div></div></td></tr><tr><td style="font-weight:bold;vertical-align:top;">path</td><td style="vertical-align:top;">:</td><td><div></div></td></tr><tr><td style="font-weight:bold;vertical-align:top;">secure</td><td style="vertical-align:top;">:</td><td><div></div></td></tr><tr><td style="font-weight:bold;vertical-align:top;">version</td><td style="vertical-align:top;">:</td><td><div></div></td></tr></table></div></td></tr><tr><td style="font-weight:bold;vertical-align:top;">session_id_edify</td><td style="vertical-align:top;">:</td><td><div>127.0.0.1-280e8398-86e7-40b9-b32e-1e4d6e6a7c38<table><tr><td style="font-weight:bold;vertical-align:top;">comment</td><td style="vertical-align:top;">:</td><td><div></div></td></tr><tr><td style="font-weight:bold;vertical-align:top;">domain</td><td style="vertical-align:top;">:</td><td><div></div></td></tr><tr><td style="font-weight:bold;vertical-align:top;">expires</td><td style="vertical-align:top;">:</td><td><div></div></td></tr><tr><td style="font-weight:bold;vertical-align:top;">httponly</td><td style="vertical-align:top;">:</td><td><div></div></td></tr><tr><td style="font-weight:bold;vertical-align:top;">max-age</td><td style="vertical-align:top;">:</td><td><div></div></td></tr><tr><td style="font-weight:bold;vertical-align:top;">path</td><td style="vertical-align:top;">:</td><td><div></div></td></tr><tr><td style="font-weight:bold;vertical-align:top;">secure</td><td style="vertical-align:top;">:</td><td><div></div></td></tr><tr><td style="font-weight:bold;vertical-align:top;">version</td><td style="vertical-align:top;">:</td><td><div></div></td></tr></table></div></td></tr><tr><td style="font-weight:bold;vertical-align:top;">session_id_test</td><td style="vertical-align:top;">:</td><td><div>127.0.0.1-94fc38b9-e161-4ded-bf82-0fca6bf4587e<table><tr><td style="font-weight:bold;vertical-align:top;">comment</td><td style="vertical-align:top;">:</td><td><div></div></td></tr><tr><td style="font-weight:bold;vertical-align:top;">domain</td><td style="vertical-align:top;">:</td><td><div></div></td></tr><tr><td style="font-weight:bold;vertical-align:top;">expires</td><td style="vertical-align:top;">:</td><td><div></div></td></tr><tr><td style="font-weight:bold;vertical-align:top;">httponly</td><td style="vertical-align:top;">:</td><td><div></div></td></tr><tr><td style="font-weight:bold;vertical-align:top;">max-age</td><td style="vertical-align:top;">:</td><td><div></div></td></tr><tr><td style="font-weight:bold;vertical-align:top;">path</td><td style="vertical-align:top;">:</td><td><div></div></td></tr><tr><td style="font-weight:bold;vertical-align:top;">secure</td><td style="vertical-align:top;">:</td><td><div></div></td></tr><tr><td style="font-weight:bold;vertical-align:top;">version</td><td style="vertical-align:top;">:</td><td><div></div></td></tr></table></div></td></tr><tr><td style="font-weight:bold;vertical-align:top;">session_id_welcome</td><td style="vertical-align:top;">:</td><td><div>127.0.0.1-6d9a9fb3-4f07-4b58-ae04-914c4589b748<table><tr><td style="font-weight:bold;vertical-align:top;">comment</td><td style="vertical-align:top;">:</td><td><div></div></td></tr><tr><td style="font-weight:bold;vertical-align:top;">domain</td><td style="vertical-align:top;">:</td><td><div></div></td></tr><tr><td style="font-weight:bold;vertical-align:top;">expires</td><td style="vertical-align:top;">:</td><td><div></div></td></tr><tr><td style="font-weight:bold;vertical-align:top;">httponly</td><td style="vertical-align:top;">:</td><td><div></div></td></tr><tr><td style="font-weight:bold;vertical-align:top;">max-age</td><td style="vertical-align:top;">:</td><td><div></div></td></tr><tr><td style="font-weight:bold;vertical-align:top;">path</td><td style="vertical-align:top;">:</td><td><div></div></td></tr><tr><td style="font-weight:bold;vertical-align:top;">secure</td><td style="vertical-align:top;">:</td><td><div></div></td></tr><tr><td style="font-weight:bold;vertical-align:top;">version</td><td style="vertical-align:top;">:</td><td><div></div></td></tr></table></div></td></tr></table></div></td></tr><tr><td style="font-weight:bold;vertical-align:top;">env</td><td style="vertical-align:top;">:</td><td><div><table><tr><td style="font-weight:bold;vertical-align:top;">HTTP_ACCEPT</td><td style="vertical-align:top;">:</td><td><div>text/html,application/xhtml+xml,application/xml;q=0.9,image/webp,*/*;q=0.8</div></td></tr><tr><td style="font-weight:bold;vertical-align:top;">HTTP_ACCEPT_ENCODING</td><td style="vertical-align:top;">:</td><td><div>gzip, deflate, sdch</div></td></tr><tr><td style="font-weight:bold;vertical-align:top;">HTTP_ACCEPT_LANGUAGE</td><td style="vertical-align:top;">:</td><td><div>en,en-US;q=0.8,en-GB;q=0.6</div></td></tr><tr><td style="font-weight:bold;vertical-align:top;">HTTP_CONNECTION</td><td style="vertical-align:top;">:</td><td><div>keep-alive</div></td></tr><tr><td style="font-weight:bold;vertical-align:top;">HTTP_COOKIE</td><td style="vertical-align:top;">:</td><td><div>session_id_test=127.0.0.1-94fc38b9-e161-4ded-bf82-0fca6bf4587e; session_id_welcome=127.0.0.1-6d9a9fb3-4f07-4b58-ae04-914c4589b748; session_id_admin=127.0.0.1-9a038e43-77c1-44dd-8169-8c599ca9c57c; session_id_edify=127.0.0.1-280e8398-86e7-40b9-b32e-1e4d6e6a7c38</div></td></tr><tr><td style="font-weight:bold;vertical-align:top;">HTTP_HOST</td><td style="vertical-align:top;">:</td><td><div>localhost:8000</div></td></tr><tr><td style="font-weight:bold;vertical-align:top;">HTTP_UPGRADE_INSECURE_REQUESTS</td><td style="vertical-align:top;">:</td><td><div>1</div></td></tr><tr><td style="font-weight:bold;vertical-align:top;">HTTP_USER_AGENT</td><td style="vertical-align:top;">:</td><td><div>Mozilla/5.0 (Macintosh; Intel Mac OS X 10_11_0) AppleWebKit/537.36 (KHTML, like Gecko) Chrome/46.0.2490.80 Safari/537.36</div></td></tr><tr><td style="font-weight:bold;vertical-align:top;">PATH_INFO</td><td style="vertical-align:top;">:</td><td><div>/edify/course/main/570</div></td></tr><tr><td style="font-weight:bold;vertical-align:top;">QUERY_STRING</td><td style="vertical-align:top;">:</td><td><div></div></td></tr><tr><td style="font-weight:bold;vertical-align:top;">REMOTE_ADDR</td><td style="vertical-align:top;">:</td><td><div>127.0.0.1</div></td></tr><tr><td style="font-weight:bold;vertical-align:top;">REMOTE_PORT</td><td style="vertical-align:top;">:</td><td><div>63923</div></td></tr><tr><td style="font-weight:bold;vertical-align:top;">REQUEST_METHOD</td><td style="vertical-align:top;">:</td><td><div>GET</div></td></tr><tr><td style="font-weight:bold;vertical-align:top;">SCRIPT_NAME</td><td style="vertical-align:top;">:</td><td><div></div></td></tr><tr><td style="font-weight:bold;vertical-align:top;">SERVER_NAME</td><td style="vertical-align:top;">:</td><td><div>Aditya-Gaykars-MacBook-Pro.local</div></td></tr><tr><td style="font-weight:bold;vertical-align:top;">SERVER_PORT</td><td style="vertical-align:top;">:</td><td><div>8000</div></td></tr><tr><td style="font-weight:bold;vertical-align:top;">SERVER_PROTOCOL</td><td style="vertical-align:top;">:</td><td><div>HTTP/1.1</div></td></tr><tr><td style="font-weight:bold;vertical-align:top;">SERVER_SOFTWARE</td><td style="vertical-align:top;">:</td><td><div>Rocket 1.2.6</div></td></tr><tr><td style="font-weight:bold;vertical-align:top;">app_folders</td><td style="vertical-align:top;">:</td><td><div>set([&#x27;/Users/adityagaykar/Dropbox/Development/MtechCSE/Sem1/SCE/Project/web2py/applications/edify/&#x27;, &#x27;/Users/adityagaykar/Dropbox/Development/MtechCSE/Sem1/SCE/Project/web2py/applications/welcome/&#x27;, &#x27;/Users/adityagaykar/Dropbox/Development/MtechCSE/Sem1/SCE/Project/web2py/applications/admin/&#x27;, &#x27;/Users/adityagaykar/Dropbox/Development/MtechCSE/Sem1/SCE/Project/web2py/applications/test/&#x27;])</div></td></tr><tr><td style="font-weight:bold;vertical-align:top;">applications_parent</td><td style="vertical-align:top;">:</td><td><div>/Users/adityagaykar/Dropbox/Development/MtechCSE/Sem1/SCE/Project/web2py</div></td></tr><tr><td style="font-weight:bold;vertical-align:top;">cmd_args</td><td style="vertical-align:top;">:</td><td><div><table></table></div></td></tr><tr><td style="font-weight:bold;vertical-align:top;">cmd_options</td><td style="vertical-align:top;">:</td><td><div>&lt;Values at 0x1040e2488: {&#x27;verbose&#x27;: False, &#x27;ip&#x27;: &#x27;127.0.0.1&#x27;, &#x27;debuglevel&#x27;: 30, &#x27;with_scheduler&#x27;: False, &#x27;ips&#x27;: [&#x27;fe80::ca2a:14ff:fe04:5c0a%en0&#x27;, &#x27;10.1.131.147&#x27;], &#x27;shutdown_timeout&#x27;: 5, &#x27;taskbar&#x27;: False, &#x27;with_coverage&#x27;: False, &#x27;scheduler_groups&#x27;: None, &#x27;port&#x27;: 8000, &#x27;maxthreads&#x27;: None, &#x27;softcron&#x27;: False, &#x27;server_name&#x27;: &#x27;Aditya-Gaykars-MacBook-Pro.local&#x27;, &#x27;bpython&#x27;: False, &#x27;nogui&#x27;: False, &#x27;pid_filename&#x27;: &#x27;httpserver.pid&#x27;, &#x27;print_errors&#x27;: False, &#x27;extcron&#x27;: False, &#x27;runcron&#x27;: False, &#x27;run_system_tests&#x27;: False, &#x27;test&#x27;: None, &#x27;folder&#x27;: &#x27;/Users/adityagaykar/Dropbox/Development/MtechCSE/Sem1/SCE/Project/web2py&#x27;, &#x27;config&#x27;: &#x27;&#x27;, &#x27;minthreads&#x27;: None, &#x27;shell&#x27;: None, &#x27;run&#x27;: &#x27;&#x27;, &#x27;log_filename&#x27;: &#x27;httpserver.log&#x27;, &#x27;profiler_dir&#x27;: None, &#x27;args&#x27;: [&#x27;&#x27;], &#x27;socket_timeout&#x27;: 5, &#x27;ssl_ca_certificate&#x27;: None, &#x27;scheduler&#x27;: None, &#x27;interfaces&#x27;: None, &#x27;ssl_private_key&#x27;: &#x27;&#x27;, &#x27;gae&#x27;: None, &#x27;password&#x27;: &#x27;test&#x27;, &#x27;request_queue_size&#x27;: 5, &#x27;ssl_certificate&#x27;: &#x27;&#x27;, &#x27;cronjob&#x27;: False, &#x27;numthreads&#x27;: None, &#x27;quiet&#x27;: False, &#x27;import_models&#x27;: False, &#x27;timeout&#x27;: 10, &#x27;plain&#x27;: False, &#x27;nobanner&#x27;: False}&gt;</div></td></tr><tr><td style="font-weight:bold;vertical-align:top;">db_sessions</td><td style="vertical-align:top;">:</td><td><div>set([])</div></td></tr><tr><td style="font-weight:bold;vertical-align:top;">debugging</td><td style="vertical-align:top;">:</td><td><div>True</div></td></tr><tr><td style="font-weight:bold;vertical-align:top;">gluon_parent</td><td style="vertical-align:top;">:</td><td><div>/Users/adityagaykar/Dropbox/Development/MtechCSE/Sem1/SCE/Project/web2py</div></td></tr><tr><td style="font-weight:bold;vertical-align:top;">http_accept</td><td style="vertical-align:top;">:</td><td><div>text/html,application/xhtml+xml,application/xml;q=0.9,image/webp,*/*;q=0.8</div></td></tr><tr><td style="font-weight:bold;vertical-align:top;">http_accept_encoding</td><td style="vertical-align:top;">:</td><td><div>gzip, deflate, sdch</div></td></tr><tr><td style="font-weight:bold;vertical-align:top;">http_accept_language</td><td style="vertical-align:top;">:</td><td><div>en,en-US;q=0.8,en-GB;q=0.6</div></td></tr><tr><td style="font-weight:bold;vertical-align:top;">http_connection</td><td style="vertical-align:top;">:</td><td><div>keep-alive</div></td></tr><tr><td style="font-weight:bold;vertical-align:top;">http_cookie</td><td style="vertical-align:top;">:</td><td><div>session_id_test=127.0.0.1-94fc38b9-e161-4ded-bf82-0fca6bf4587e; session_id_welcome=127.0.0.1-6d9a9fb3-4f07-4b58-ae04-914c4589b748; session_id_admin=127.0.0.1-9a038e43-77c1-44dd-8169-8c599ca9c57c; session_id_edify=127.0.0.1-280e8398-86e7-40b9-b32e-1e4d6e6a7c38</div></td></tr><tr><td style="font-weight:bold;vertical-align:top;">http_host</td><td style="vertical-align:top;">:</td><td><div>localhost:8000</div></td></tr><tr><td style="font-weight:bold;vertical-align:top;">http_upgrade_insecure_requests</td><td style="vertical-align:top;">:</td><td><div>1</div></td></tr><tr><td style="font-weight:bold;vertical-align:top;">http_user_agent</td><td style="vertical-align:top;">:</td><td><div>Mozilla/5.0 (Macintosh; Intel Mac OS X 10_11_0) AppleWebKit/537.36 (KHTML, like Gecko) Chrome/46.0.2490.80 Safari/537.36</div></td></tr><tr><td style="font-weight:bold;vertical-align:top;">is_jython</td><td style="vertical-align:top;">:</td><td><div>False</div></td></tr><tr><td style="font-weight:bold;vertical-align:top;">is_pypy</td><td style="vertical-align:top;">:</td><td><div>False</div></td></tr><tr><td style="font-weight:bold;vertical-align:top;">is_source</td><td style="vertical-align:top;">:</td><td><div>True</div></td></tr><tr><td style="font-weight:bold;vertical-align:top;">local_hosts</td><td style="vertical-align:top;">:</td><td><div><table><tr><td><div>fe80::ca2a:14ff:fe04:5c0a%en0</div></td></tr><tr><td><div>10.1.131.147</div></td></tr><tr><td><div>::ffff:127.0.0.1</div></td></tr><tr><td><div>::1</div></td></tr><tr><td><div>aditya-gaykars-macbook-pro.local</div></td></tr><tr><td><div>127.0.0.1</div></td></tr><tr><td><div>Aditya-Gaykars-MacBook-Pro.local</div></td></tr></table></div></td></tr><tr><td style="font-weight:bold;vertical-align:top;">path_info</td><td style="vertical-align:top;">:</td><td><div>/edify/course/main/570</div></td></tr><tr><td style="font-weight:bold;vertical-align:top;">query_string</td><td style="vertical-align:top;">:</td><td><div></div></td></tr><tr><td style="font-weight:bold;vertical-align:top;">remote_addr</td><td style="vertical-align:top;">:</td><td><div>127.0.0.1</div></td></tr><tr><td style="font-weight:bold;vertical-align:top;">remote_port</td><td style="vertical-align:top;">:</td><td><div>63923</div></td></tr><tr><td style="font-weight:bold;vertical-align:top;">request_method</td><td style="vertical-align:top;">:</td><td><div>GET</div></td></tr><tr><td style="font-weight:bold;vertical-align:top;">request_uri</td><td style="vertical-align:top;">:</td><td><div>/edify/course/main/570</div></td></tr><tr><td style="font-weight:bold;vertical-align:top;">script_name</td><td style="vertical-align:top;">:</td><td><div></div></td></tr><tr><td style="font-weight:bold;vertical-align:top;">server_name</td><td style="vertical-align:top;">:</td><td><div>Aditya-Gaykars-MacBook-Pro.local</div></td></tr><tr><td style="font-weight:bold;vertical-align:top;">server_port</td><td style="vertical-align:top;">:</td><td><div>8000</div></td></tr><tr><td style="font-weight:bold;vertical-align:top;">server_protocol</td><td style="vertical-align:top;">:</td><td><div>HTTP/1.1</div></td></tr><tr><td style="font-weight:bold;vertical-align:top;">server_software</td><td style="vertical-align:top;">:</td><td><div>Rocket 1.2.6</div></td></tr><tr><td style="font-weight:bold;vertical-align:top;">web2py_path</td><td style="vertical-align:top;">:</td><td><div>/Users/adityagaykar/Dropbox/Development/MtechCSE/Sem1/SCE/Project/web2py</div></td></tr><tr><td style="font-weight:bold;vertical-align:top;">web2py_version</td><td style="vertical-align:top;">:</td><td><div>2.12.3-stable+timestamp.2015.08.19.00.18.03</div></td></tr><tr><td style="font-weight:bold;vertical-align:top;">wsgi.errors</td><td style="vertical-align:top;">:</td><td><div>&lt;open file &#x27;&lt;stderr&gt;&#x27;, mode &#x27;w&#x27; at 0x10028e1e0&gt;</div></td></tr><tr><td style="font-weight:bold;vertical-align:top;">wsgi.file_wrapper</td><td style="vertical-align:top;">:</td><td><div>&lt;class wsgiref.util.FileWrapper at 0x103dbb188&gt;</div></td></tr><tr><td style="font-weight:bold;vertical-align:top;">wsgi.input</td><td style="vertical-align:top;">:</td><td><div>&lt;socket._fileobject object at 0x1075a4550&gt;</div></td></tr><tr><td style="font-weight:bold;vertical-align:top;">wsgi.multiprocess</td><td style="vertical-align:top;">:</td><td><div>False</div></td></tr><tr><td style="font-weight:bold;vertical-align:top;">wsgi.multithread</td><td style="vertical-align:top;">:</td><td><div>True</div></td></tr><tr><td style="font-weight:bold;vertical-align:top;">wsgi.run_once</td><td style="vertical-align:top;">:</td><td><div>False</div></td></tr><tr><td style="font-weight:bold;vertical-align:top;">wsgi.url_scheme</td><td style="vertical-align:top;">:</td><td><div>http</div></td></tr><tr><td style="font-weight:bold;vertical-align:top;">wsgi.version</td><td style="vertical-align:top;">:</td><td><div><table><tr><td><div>1</div></td></tr><tr><td><div>0</div></td></tr></table></div></td></tr><tr><td style="font-weight:bold;vertical-align:top;">wsgi_errors</td><td style="vertical-align:top;">:</td><td><div>&lt;open file &#x27;&lt;stderr&gt;&#x27;, mode &#x27;w&#x27; at 0x10028e1e0&gt;</div></td></tr><tr><td style="font-weight:bold;vertical-align:top;">wsgi_file_wrapper</td><td style="vertical-align:top;">:</td><td><div>&lt;class wsgiref.util.FileWrapper at 0x103dbb188&gt;</div></td></tr><tr><td style="font-weight:bold;vertical-align:top;">wsgi_input</td><td style="vertical-align:top;">:</td><td><div>&lt;socket._fileobject object at 0x1075a4550&gt;</div></td></tr><tr><td style="font-weight:bold;vertical-align:top;">wsgi_multiprocess</td><td style="vertical-align:top;">:</td><td><div>False</div></td></tr><tr><td style="font-weight:bold;vertical-align:top;">wsgi_multithread</td><td style="vertical-align:top;">:</td><td><div>True</div></td></tr><tr><td style="font-weight:bold;vertical-align:top;">wsgi_run_once</td><td style="vertical-align:top;">:</td><td><div>False</div></td></tr><tr><td style="font-weight:bold;vertical-align:top;">wsgi_url_scheme</td><td style="vertical-align:top;">:</td><td><div>http</div></td></tr><tr><td style="font-weight:bold;vertical-align:top;">wsgi_version</td><td style="vertical-align:top;">:</td><td><div><table><tr><td><div>1</div></td></tr><tr><td><div>0</div></td></tr></table></div></td></tr></table></div></td></tr><tr><td style="font-weight:bold;vertical-align:top;">extension</td><td style="vertical-align:top;">:</td><td><div>html</div></td></tr><tr><td style="font-weight:bold;vertical-align:top;">folder</td><td style="vertical-align:top;">:</td><td><div>/Users/adityagaykar/Dropbox/Development/MtechCSE/Sem1/SCE/Project/web2py/applications/edify/</div></td></tr><tr><td style="font-weight:bold;vertical-align:top;">function</td><td style="vertical-align:top;">:</td><td><div>main</div></td></tr><tr><td style="font-weight:bold;vertical-align:top;">global_settings</td><td style="vertical-align:top;">:</td><td><div><table><tr><td style="font-weight:bold;vertical-align:top;">app_folders</td><td style="vertical-align:top;">:</td><td><div>set([&#x27;/Users/adityagaykar/Dropbox/Development/MtechCSE/Sem1/SCE/Project/web2py/applications/edify/&#x27;, &#x27;/Users/adityagaykar/Dropbox/Development/MtechCSE/Sem1/SCE/Project/web2py/applications/welcome/&#x27;, &#x27;/Users/adityagaykar/Dropbox/Development/MtechCSE/Sem1/SCE/Project/web2py/applications/admin/&#x27;, &#x27;/Users/adityagaykar/Dropbox/Development/MtechCSE/Sem1/SCE/Project/web2py/applications/test/&#x27;])</div></td></tr><tr><td style="font-weight:bold;vertical-align:top;">applications_parent</td><td style="vertical-align:top;">:</td><td><div>/Users/adityagaykar/Dropbox/Development/MtechCSE/Sem1/SCE/Project/web2py</div></td></tr><tr><td style="font-weight:bold;vertical-align:top;">cmd_args</td><td style="vertical-align:top;">:</td><td><div><table></table></div></td></tr><tr><td style="font-weight:bold;vertical-align:top;">cmd_options</td><td style="vertical-align:top;">:</td><td><div>&lt;Values at 0x1040e2488: {&#x27;verbose&#x27;: False, &#x27;ip&#x27;: &#x27;127.0.0.1&#x27;, &#x27;debuglevel&#x27;: 30, &#x27;with_scheduler&#x27;: False, &#x27;ips&#x27;: [&#x27;fe80::ca2a:14ff:fe04:5c0a%en0&#x27;, &#x27;10.1.131.147&#x27;], &#x27;shutdown_timeout&#x27;: 5, &#x27;taskbar&#x27;: False, &#x27;with_coverage&#x27;: False, &#x27;scheduler_groups&#x27;: None, &#x27;port&#x27;: 8000, &#x27;maxthreads&#x27;: None, &#x27;softcron&#x27;: False, &#x27;server_name&#x27;: &#x27;Aditya-Gaykars-MacBook-Pro.local&#x27;, &#x27;bpython&#x27;: False, &#x27;nogui&#x27;: False, &#x27;pid_filename&#x27;: &#x27;httpserver.pid&#x27;, &#x27;print_errors&#x27;: False, &#x27;extcron&#x27;: False, &#x27;runcron&#x27;: False, &#x27;run_system_tests&#x27;: False, &#x27;test&#x27;: None, &#x27;folder&#x27;: &#x27;/Users/adityagaykar/Dropbox/Development/MtechCSE/Sem1/SCE/Project/web2py&#x27;, &#x27;config&#x27;: &#x27;&#x27;, &#x27;minthreads&#x27;: None, &#x27;shell&#x27;: None, &#x27;run&#x27;: &#x27;&#x27;, &#x27;log_filename&#x27;: &#x27;httpserver.log&#x27;, &#x27;profiler_dir&#x27;: None, &#x27;args&#x27;: [&#x27;&#x27;], &#x27;socket_timeout&#x27;: 5, &#x27;ssl_ca_certificate&#x27;: None, &#x27;scheduler&#x27;: None, &#x27;interfaces&#x27;: None, &#x27;ssl_private_key&#x27;: &#x27;&#x27;, &#x27;gae&#x27;: None, &#x27;password&#x27;: &#x27;test&#x27;, &#x27;request_queue_size&#x27;: 5, &#x27;ssl_certificate&#x27;: &#x27;&#x27;, &#x27;cronjob&#x27;: False, &#x27;numthreads&#x27;: None, &#x27;quiet&#x27;: False, &#x27;import_models&#x27;: False, &#x27;timeout&#x27;: 10, &#x27;plain&#x27;: False, &#x27;nobanner&#x27;: False}&gt;</div></td></tr><tr><td style="font-weight:bold;vertical-align:top;">db_sessions</td><td style="vertical-align:top;">:</td><td><div>set([])</div></td></tr><tr><td style="font-weight:bold;vertical-align:top;">debugging</td><td style="vertical-align:top;">:</td><td><div>True</div></td></tr><tr><td style="font-weight:bold;vertical-align:top;">gluon_parent</td><td style="vertical-align:top;">:</td><td><div>/Users/adityagaykar/Dropbox/Development/MtechCSE/Sem1/SCE/Project/web2py</div></td></tr><tr><td style="font-weight:bold;vertical-align:top;">is_jython</td><td style="vertical-align:top;">:</td><td><div>False</div></td></tr><tr><td style="font-weight:bold;vertical-align:top;">is_pypy</td><td style="vertical-align:top;">:</td><td><div>False</div></td></tr><tr><td style="font-weight:bold;vertical-align:top;">is_source</td><td style="vertical-align:top;">:</td><td><div>True</div></td></tr><tr><td style="font-weight:bold;vertical-align:top;">local_hosts</td><td style="vertical-align:top;">:</td><td><div><table><tr><td><div>fe80::ca2a:14ff:fe04:5c0a%en0</div></td></tr><tr><td><div>10.1.131.147</div></td></tr><tr><td><div>::ffff:127.0.0.1</div></td></tr><tr><td><div>::1</div></td></tr><tr><td><div>aditya-gaykars-macbook-pro.local</div></td></tr><tr><td><div>127.0.0.1</div></td></tr><tr><td><div>Aditya-Gaykars-MacBook-Pro.local</div></td></tr></table></div></td></tr><tr><td style="font-weight:bold;vertical-align:top;">web2py_version</td><td style="vertical-align:top;">:</td><td><div>2.12.3-stable+timestamp.2015.08.19.00.18.03</div></td></tr></table></div></td></tr><tr><td style="font-weight:bold;vertical-align:top;">is_https</td><td style="vertical-align:top;">:</td><td><div>False</div></td></tr><tr><td style="font-weight:bold;vertical-align:top;">is_local</td><td style="vertical-align:top;">:</td><td><div>True</div></td></tr><tr><td style="font-weight:bold;vertical-align:top;">is_restful</td><td style="vertical-align:top;">:</td><td><div>False</div></td></tr><tr><td style="font-weight:bold;vertical-align:top;">is_sheduler</td><td style="vertical-align:top;">:</td><td><div>None</div></td></tr><tr><td style="font-weight:bold;vertical-align:top;">is_shell</td><td style="vertical-align:top;">:</td><td><div>None</div></td></tr><tr><td style="font-weight:bold;vertical-align:top;">now</td><td style="vertical-align:top;">:</td><td><div>datetime.datetime(2015, 11, 13, 11, 56, 26, 742482)</div></td></tr><tr><td style="font-weight:bold;vertical-align:top;">raw_args</td><td style="vertical-align:top;">:</td><td><div>570</div></td></tr><tr><td style="font-weight:bold;vertical-align:top;">raw_extension</td><td style="vertical-align:top;">:</td><td><div>None</div></td></tr><tr><td style="font-weight:bold;vertical-align:top;">url</td><td style="vertical-align:top;">:</td><td><div>/edify/course/main/570</div></td></tr><tr><td style="font-weight:bold;vertical-align:top;">utcnow</td><td style="vertical-align:top;">:</td><td><div>datetime.datetime(2015, 11, 13, 6, 26, 26, 742496)</div></td></tr><tr><td style="font-weight:bold;vertical-align:top;">wsgi</td><td style="vertical-align:top;">:</td><td><div>&lt;gluon.main.LazyWSGI object at 0x107834710&gt;</div></td></tr></table></div>'
tRp58
sS'frames'
p59
(lp60
(dp61
S'file'
p62
S'/Users/adityagaykar/Dropbox/Development/MtechCSE/Sem1/SCE/Project/web2py/gluon/restricted.py'
p63
sS'dump'
p64
(dp65
S'environment'
p66
S"{'A': <class 'gluon.html.A'>, 'ANY_OF': <class 'gluon.validators.ANY_OF'>, 'ASSIGNJS': <function ASSIGNJS>, 'AppConfig': <function AppConfig>, 'Auth': <class 'gluon.tools.Auth'>, 'B': <class 'gluon.html.B'>, 'BEAUTIFY': <class 'gluon.html.BEAUTIFY'>, 'BODY': <class 'gluon.html.BODY'>, 'BR': <class 'gluon.html.BR'>, 'BUTTON': <class 'gluon.html.BUTTON'>, ...}"
p67
sS'ccode'
p68
S'<code object <module> at 0x106b1ff30, file "/Use...plications/edify/views/course/main.html", line 1>'
p69
ssS'lnum'
p70
I227
sS'lines'
p71
(dp72
I224
S'            ccode = code'
p73
sI225
S'        else:'
p74
sI226
S'            ccode = compile2(code, layer)'
p75
sI227
S'        exec ccode in environment'
p76
sI228
S'    except HTTP:'
p77
sI229
S'        raise'
p78
sI230
S'    except RestrictedError:'
p79
sI231
S'        # do not encapsulate (obfuscate) the original RestrictedError'
p80
sI222
S'    try:'
p81
sI223
S'        if isinstance(code, types.CodeType):'
p82
ssS'call'
p83
S'(code=\'response.write(\\\'<!DOCTYPE html>\\\\n<!--[if (gt IE ..."></script>\\\\n  </body>\\\\n</html>\\\\n\\\', escape=False)\', environment={\'A\': <class \'gluon.html.A\'>, \'ANY_OF\': <class \'gluon.validators.ANY_OF\'>, \'ASSIGNJS\': <function ASSIGNJS>, \'AppConfig\': <function AppConfig>, \'Auth\': <class \'gluon.tools.Auth\'>, \'B\': <class \'gluon.html.B\'>, \'BEAUTIFY\': <class \'gluon.html.BEAUTIFY\'>, \'BODY\': <class \'gluon.html.BODY\'>, \'BR\': <class \'gluon.html.BR\'>, \'BUTTON\': <class \'gluon.html.BUTTON\'>, ...}, layer=\'/Users/adityagaykar/Dropbox/Development/MtechCSE.../web2py/applications/edify/views/course/main.html\')'
p84
sS'func'
p85
S'restricted'
p86
sa(dp87
g62
S'/Users/adityagaykar/Dropbox/Development/MtechCSE/Sem1/SCE/Project/web2py/applications/edify/views/course/main.html'
p88
sg64
(dp89
S'div'
p90
S'undefined'
p91
ssg70
I88
sg71
(dp92
I96
S'    else:'
p93
sI97
S"        response.write('\\n\\t\\t\\t\\t', escape=False)"
p94
sI98
S'        response.write(A("Withdraw", _href=URL("course","unregister/"+str(course_id)), _class="btn btn-danger pull-right"))'
p95
sI79
S'if left_sidebar_enabled:'
p96
sI80
S'    response.write(\'\\n        <div class="col-md-3 left-sidebar">\\n            \', escape=False)'
p97
sI81
S"    response.write('\\n            <h3>Left Sidebar</h3>\\n            <p></p>\\n            ', escape=False)"
p98
sI82
S"    response.write('\\n        </div>\\n      ', escape=False)"
p99
sI83
S'    pass'
p100
sI84
S'response.write(\'\\n\\n      <div class="\', escape=False)'
p101
sI85
S'response.write(middle_column)'
p102
sI86
S'response.write(\'">        \\n        \', escape=False)'
p103
sI87
S"response.write('\\n\\n', escape=False)"
p104
sI88
S'if message :'
p105
sI89
S"    response.write('\\n<h3>', escape=False)"
p106
sI90
S'    response.write(message)'
p107
sI91
S"    response.write('\\n\\t\\t\\t<!-- ', escape=False)"
p108
sI92
S'    if registered == 0:'
p109
sI93
S"        response.write('\\n\\t\\t\\t\\t', escape=False)"
p110
sI94
S'        response.write(A("Enroll", _href=URL("course","register/"+str(course_id)), _class="btn btn-success pull-right"))'
p111
sI95
S"        response.write('\\t\\n\\t\\t\\t', escape=False)"
p112
ssg83
S'()'
p113
sg85
S'<module>'
p114
sasS'pyver'
p115
S'Python 2.7.10: /anaconda/bin/python (prefix: /anaconda)'
p116
sS'session'
p117
g57
(S's\xbe\x0c\x00\x00<div><table><tr><td style="font-weight:bold;vertical-align:top;">auth</td><td style="vertical-align:top;">:</td><td><div><table><tr><td style="font-weight:bold;vertical-align:top;">expiration</td><td style="vertical-align:top;">:</td><td><div>3600</div></td></tr><tr><td style="font-weight:bold;vertical-align:top;">hmac_key</td><td style="vertical-align:top;">:</td><td><div>a98bff07-69b2-4986-aed4-8858f4d40e21</div></td></tr><tr><td style="font-weight:bold;vertical-align:top;">last_visit</td><td style="vertical-align:top;">:</td><td><div>datetime.datetime(2015, 11, 13, 11, 56, 20, 951927)</div></td></tr><tr><td style="font-weight:bold;vertical-align:top;">remember_me</td><td style="vertical-align:top;">:</td><td><div>False</div></td></tr><tr><td style="font-weight:bold;vertical-align:top;">user</td><td style="vertical-align:top;">:</td><td><div><table><tr><td style="font-weight:bold;vertical-align:top;">admin_verified</td><td style="vertical-align:top;">:</td><td><div>no</div></td></tr><tr><td style="font-weight:bold;vertical-align:top;">country</td><td style="vertical-align:top;">:</td><td><div>India</div></td></tr><tr><td style="font-weight:bold;vertical-align:top;">course</td><td style="vertical-align:top;">:</td><td><div>Mtech CSE</div></td></tr><tr><td style="font-weight:bold;vertical-align:top;">date_of_birth</td><td style="vertical-align:top;">:</td><td><div>datetime.date(1991, 12, 7)</div></td></tr><tr><td style="font-weight:bold;vertical-align:top;">email</td><td style="vertical-align:top;">:</td><td><div>gaykar.aditya@students.iiit.ac.in</div></td></tr><tr><td style="font-weight:bold;vertical-align:top;">first_name</td><td style="vertical-align:top;">:</td><td><div>Aditya</div></td></tr><tr><td style="font-weight:bold;vertical-align:top;">gender</td><td style="vertical-align:top;">:</td><td><div>Male</div></td></tr><tr><td style="font-weight:bold;vertical-align:top;">id</td><td style="vertical-align:top;">:</td><td><div>1L</div></td></tr><tr><td style="font-weight:bold;vertical-align:top;">last_name</td><td style="vertical-align:top;">:</td><td><div>Gaykar</div></td></tr><tr><td style="font-weight:bold;vertical-align:top;">phone</td><td style="vertical-align:top;">:</td><td><div>9833502979</div></td></tr><tr><td style="font-weight:bold;vertical-align:top;">registration_id</td><td style="vertical-align:top;">:</td><td><div></div></td></tr><tr><td style="font-weight:bold;vertical-align:top;">registration_key</td><td style="vertical-align:top;">:</td><td><div></div></td></tr><tr><td style="font-weight:bold;vertical-align:top;">reset_password_key</td><td style="vertical-align:top;">:</td><td><div></div></td></tr><tr><td style="font-weight:bold;vertical-align:top;">role</td><td style="vertical-align:top;">:</td><td><div>Admin</div></td></tr></table></div></td></tr><tr><td style="font-weight:bold;vertical-align:top;">user_groups</td><td style="vertical-align:top;">:</td><td><div><table><tr><td style="font-weight:bold;vertical-align:top;">1</td><td style="vertical-align:top;">:</td><td><div>user_1</div></td></tr></table></div></td></tr></table></div></td></tr><tr><td style="font-weight:bold;vertical-align:top;">flash</td><td style="vertical-align:top;">:</td><td><div>None</div></td></tr></table></div>'
tRp118
sS'etype'
p119
S"<type 'exceptions.NameError'>"
p120
sS'date'
p121
S'Fri Nov 13 11:56:26 2015'
p122
sS'response'
p123
g57
(S's\xa5\x1f\x00\x00<div><table><tr><td style="font-weight:bold;vertical-align:top;">body</td><td style="vertical-align:top;">:</td><td><div>&lt;cStringIO.StringO object at 0x10716f110&gt;</div></td></tr><tr><td style="font-weight:bold;vertical-align:top;">cookies</td><td style="vertical-align:top;">:</td><td><div><table><tr><td style="font-weight:bold;vertical-align:top;">session_id_edify</td><td style="vertical-align:top;">:</td><td><div>127.0.0.1-280e8398-86e7-40b9-b32e-1e4d6e6a7c38<table><tr><td style="font-weight:bold;vertical-align:top;">comment</td><td style="vertical-align:top;">:</td><td><div></div></td></tr><tr><td style="font-weight:bold;vertical-align:top;">domain</td><td style="vertical-align:top;">:</td><td><div></div></td></tr><tr><td style="font-weight:bold;vertical-align:top;">expires</td><td style="vertical-align:top;">:</td><td><div></div></td></tr><tr><td style="font-weight:bold;vertical-align:top;">httponly</td><td style="vertical-align:top;">:</td><td><div></div></td></tr><tr><td style="font-weight:bold;vertical-align:top;">max-age</td><td style="vertical-align:top;">:</td><td><div></div></td></tr><tr><td style="font-weight:bold;vertical-align:top;">path</td><td style="vertical-align:top;">:</td><td><div>/</div></td></tr><tr><td style="font-weight:bold;vertical-align:top;">secure</td><td style="vertical-align:top;">:</td><td><div></div></td></tr><tr><td style="font-weight:bold;vertical-align:top;">version</td><td style="vertical-align:top;">:</td><td><div></div></td></tr></table></div></td></tr></table></div></td></tr><tr><td style="font-weight:bold;vertical-align:top;">delimiters</td><td style="vertical-align:top;">:</td><td><div><table><tr><td><div>{{</div></td></tr><tr><td><div>}}</div></td></tr></table></div></td></tr><tr><td style="font-weight:bold;vertical-align:top;">files</td><td style="vertical-align:top;">:</td><td><div><table><tr><td><div>/edify/static/js/jquery.js</div></td></tr><tr><td><div>/edify/static/css/calendar.css</div></td></tr><tr><td><div>/edify/static/js/calendar.js</div></td></tr><tr><td><div>/edify/static/js/web2py.js</div></td></tr></table></div></td></tr><tr><td style="font-weight:bold;vertical-align:top;">flash</td><td style="vertical-align:top;">:</td><td><div>Invalid course</div></td></tr><tr><td style="font-weight:bold;vertical-align:top;">form_label_separator</td><td style="vertical-align:top;">:</td><td><div></div></td></tr><tr><td style="font-weight:bold;vertical-align:top;">formstyle</td><td style="vertical-align:top;">:</td><td><div>bootstrap3_inline</div></td></tr><tr><td style="font-weight:bold;vertical-align:top;">generic_patterns</td><td style="vertical-align:top;">:</td><td><div><table><tr><td><div>*</div></td></tr></table></div></td></tr><tr><td style="font-weight:bold;vertical-align:top;">google_analytics_id</td><td style="vertical-align:top;">:</td><td><div>None</div></td></tr><tr><td style="font-weight:bold;vertical-align:top;">headers</td><td style="vertical-align:top;">:</td><td><div><table><tr><td style="font-weight:bold;vertical-align:top;">X-Powered-By</td><td style="vertical-align:top;">:</td><td><div>web2py</div></td></tr></table></div></td></tr><tr><td style="font-weight:bold;vertical-align:top;">logo</td><td style="vertical-align:top;">:</td><td><div><a class="navbar-brand" href="/edify/default/index" id="web2py-logo"><b>Edify</b>&trade;&nbsp;</a></div></td></tr><tr><td style="font-weight:bold;vertical-align:top;">menu</td><td style="vertical-align:top;">:</td><td><div><table><tr><td><div><table><tr><td><div>Home</div></td></tr><tr><td><div>False</div></td></tr><tr><td><div>/edify/default/index</div></td></tr><tr><td><div><table></table></div></td></tr></table></div></td></tr><tr><td><div><table><tr><td><div>courses</div></td></tr><tr><td><div>False</div></td></tr><tr><td><div>/edify/course/index</div></td></tr><tr><td><div><table></table></div></td></tr></table></div></td></tr></table></div></td></tr><tr><td style="font-weight:bold;vertical-align:top;">meta</td><td style="vertical-align:top;">:</td><td><div><table><tr><td style="font-weight:bold;vertical-align:top;">author</td><td style="vertical-align:top;">:</td><td><div>Your Name &lt;you@example.com&gt;</div></td></tr><tr><td style="font-weight:bold;vertical-align:top;">description</td><td style="vertical-align:top;">:</td><td><div>a cool new app</div></td></tr><tr><td style="font-weight:bold;vertical-align:top;">generator</td><td style="vertical-align:top;">:</td><td><div>Web2py Web Framework</div></td></tr><tr><td style="font-weight:bold;vertical-align:top;">keywords</td><td style="vertical-align:top;">:</td><td><div>web2py, python, framework</div></td></tr></table></div></td></tr><tr><td style="font-weight:bold;vertical-align:top;">models_to_run</td><td style="vertical-align:top;">:</td><td><div><table><tr><td><div>^\\w+\\.py$</div></td></tr><tr><td><div>^course/\\w+\\.py$</div></td></tr><tr><td><div>^course/main/\\w+\\.py$</div></td></tr></table></div></td></tr><tr><td style="font-weight:bold;vertical-align:top;">postprocessing</td><td style="vertical-align:top;">:</td><td><div><table></table></div></td></tr><tr><td style="font-weight:bold;vertical-align:top;">session_client</td><td style="vertical-align:top;">:</td><td><div>127.0.0.1</div></td></tr><tr><td style="font-weight:bold;vertical-align:top;">session_cookie_compression_level</td><td style="vertical-align:top;">:</td><td><div>None</div></td></tr><tr><td style="font-weight:bold;vertical-align:top;">session_cookie_expires</td><td style="vertical-align:top;">:</td><td><div>None</div></td></tr><tr><td style="font-weight:bold;vertical-align:top;">session_cookie_key</td><td style="vertical-align:top;">:</td><td><div>None</div></td></tr><tr><td style="font-weight:bold;vertical-align:top;">session_data_name</td><td style="vertical-align:top;">:</td><td><div>session_data_edify</div></td></tr><tr><td style="font-weight:bold;vertical-align:top;">session_file</td><td style="vertical-align:top;">:</td><td><div>&lt;open file &#x27;/Users/adityagaykar/Dropbox/Development/MtechCSE/Sem1/SCE/Project/web2py/applications/edify/sessions/1a6/194/127.0.0.1-280e8398-86e7-40b9-b32e-1e4d6e6a7c38&#x27;, mode &#x27;rb+&#x27; at 0x106a43420&gt;</div></td></tr><tr><td style="font-weight:bold;vertical-align:top;">session_filename</td><td style="vertical-align:top;">:</td><td><div>/Users/adityagaykar/Dropbox/Development/MtechCSE/Sem1/SCE/Project/web2py/applications/edify/sessions/127.0.0.1-280e8398-86e7-40b9-b32e-1e4d6e6a7c38</div></td></tr><tr><td style="font-weight:bold;vertical-align:top;">session_hash</td><td style="vertical-align:top;">:</td><td><div>d07f84995fd7cf583966a3bb9dacb9ae</div></td></tr><tr><td style="font-weight:bold;vertical-align:top;">session_id</td><td style="vertical-align:top;">:</td><td><div>127.0.0.1-280e8398-86e7-40b9-b32e-1e4d6e6a7c38</div></td></tr><tr><td style="font-weight:bold;vertical-align:top;">session_id_name</td><td style="vertical-align:top;">:</td><td><div>session_id_edify</div></td></tr><tr><td style="font-weight:bold;vertical-align:top;">session_locked</td><td style="vertical-align:top;">:</td><td><div>True</div></td></tr><tr><td style="font-weight:bold;vertical-align:top;">session_masterapp</td><td style="vertical-align:top;">:</td><td><div>edify</div></td></tr><tr><td style="font-weight:bold;vertical-align:top;">session_new</td><td style="vertical-align:top;">:</td><td><div>False</div></td></tr><tr><td style="font-weight:bold;vertical-align:top;">session_storage_type</td><td style="vertical-align:top;">:</td><td><div>file</div></td></tr><tr><td style="font-weight:bold;vertical-align:top;">status</td><td style="vertical-align:top;">:</td><td><div>200</div></td></tr><tr><td style="font-weight:bold;vertical-align:top;">subtitle</td><td style="vertical-align:top;">:</td><td><div></div></td></tr><tr><td style="font-weight:bold;vertical-align:top;">title</td><td style="vertical-align:top;">:</td><td><div>Edify</div></td></tr><tr><td style="font-weight:bold;vertical-align:top;">view</td><td style="vertical-align:top;">:</td><td><div>course/main.html</div></td></tr></table></div>'
tRp124
sS'locals'
p125
(dp126
S'Service'
p127
S"<class 'gluon.tools.Service'>"
p128
sS'OBJECT'
p129
S"<class 'gluon.html.OBJECT'>"
p130
sS'SQLDB'
p131
S"<class 'pydal.base.DAL'>"
p132
sg117
S"<Storage {'_auth_next': None, 'flash': None, 'au...gin]': ['7de3178a-c15f-47ed-bff9-706d7dacc461']}>"
p133
sS'LINK'
p134
S"<class 'gluon.html.LINK'>"
p135
sS'BR'
p136
S"<class 'gluon.html.BR'>"
p137
sS'local_import'
p138
S'<function <lambda>>'
p139
sS'OPTGROUP'
p140
S"<class 'gluon.html.OPTGROUP'>"
p141
sS'__package__'
p142
S'None'
p143
sS'PRE'
p144
S"<class 'gluon.html.PRE'>"
p145
sS'IS_INT_IN_RANGE'
p146
S"<class 'gluon.validators.IS_INT_IN_RANGE'>"
p147
sS'left_sidebar_enabled'
p148
S'False'
p149
sS'IS_LOWER'
p150
S"<class 'gluon.validators.IS_LOWER'>"
p151
sS'IS_STRONG'
p152
S"<class 'gluon.validators.IS_STRONG'>"
p153
sS'cache'
p154
S'<gluon.cache.Cache object>'
p155
sS'IS_IN_DB'
p156
S"<class 'gluon.validators.IS_IN_DB'>"
p157
sS'TAG'
p158
S'<gluon.html.__TAG__ object>'
p159
sS'SQLField'
p160
S"<class 'pydal.objects.Field'>"
p161
sS'mail'
p162
S'<gluon.tools.Mail object>'
p163
sS'BODY'
p164
S"<class 'gluon.html.BODY'>"
p165
sS'IS_DATE_IN_RANGE'
p166
S"<class 'gluon.validators.IS_DATE_IN_RANGE'>"
p167
sS'IFRAME'
p168
S"<class 'gluon.html.IFRAME'>"
p169
sS'URL'
p170
S'<function URL>'
p171
sS'__file__'
p172
S"'/Users/adityagaykar/Dropbox/Development/MtechCSE.../web2py/applications/edify/views/course/main.html'"
p173
sS'db'
p174
S'<DAL uri="sqlite://storage.sqlite">'
p175
sS'auth'
p176
S'<gluon.tools.Auth object>'
p177
sS'P'
S"<class 'gluon.html.P'>"
p178
sS'TFOOT'
p179
S"<class 'gluon.html.TFOOT'>"
p180
sS'XHTML'
p181
S"<class 'gluon.html.XHTML'>"
p182
sS'datetime'
p183
S"<module 'datetime' from '/anaconda/lib/python2.7/lib-dynload/datetime.so'>"
p184
sS'ON'
p185
S'True'
p186
sS'OL'
p187
S"<class 'gluon.html.OL'>"
p188
sS'TEXTAREA'
p189
S"<class 'gluon.html.TEXTAREA'>"
p190
sS'MENU'
p191
S"<class 'gluon.html.MENU'>"
p192
sS'IS_IMAGE'
p193
S"<class 'gluon.validators.IS_IMAGE'>"
p194
sS'EM'
p195
S"<class 'gluon.html.EM'>"
p196
sS'CODE'
p197
S"<class 'gluon.html.CODE'>"
p198
sS'HTTP'
p199
S"<class 'gluon.http.HTTP'>"
p200
sS'HR'
p201
S"<class 'gluon.html.HR'>"
p202
sS'IS_DATETIME'
p203
S"<class 'gluon.validators.IS_DATETIME'>"
p204
sS'STYLE'
p205
S"<class 'gluon.html.STYLE'>"
p206
sS'LABEL'
p207
S"<class 'gluon.html.LABEL'>"
p208
sS'CLEANUP'
p209
S"<class 'gluon.validators.CLEANUP'>"
p210
sS'plugins'
p211
S'<gluon.tools.PluginManager object>'
p212
sS'SELECT'
p213
S"<class 'gluon.html.SELECT'>"
p214
sS'CENTER'
p215
S"<class 'gluon.html.CENTER'>"
p216
sS'Auth'
p217
S"<class 'gluon.tools.Auth'>"
p218
sS'DEVELOPMENT_MENU'
p219
g149
sS'__builtins__'
p220
S"{'ArithmeticError': <type 'exceptions.ArithmeticError'>, 'AssertionError': <type 'exceptions.AssertionError'>, 'AttributeError': <type 'exceptions.AttributeError'>, 'BaseException': <type 'exceptions.BaseException'>, 'BufferError': <type 'exceptions.BufferError'>, 'BytesWarning': <type 'exceptions.BytesWarning'>, 'DeprecationWarning': <type 'exceptions.DeprecationWarning'>, 'EOFError': <type 'exceptions.EOFError'>, 'Ellipsis': Ellipsis, 'EnvironmentError': <type 'exceptions.EnvironmentError'>, ...}"
p221
sS'HTML'
p222
S"<class 'gluon.html.HTML'>"
p223
sS'SQLFORM'
p224
S"<class 'gluon.sqlhtml.SQLFORM'>"
p225
sS'LOAD'
p226
S'<function LOAD>'
p227
sS'redirect'
p228
S'<function redirect>'
p229
sS'FIELDSET'
p230
S"<class 'gluon.html.FIELDSET'>"
p231
sS'IS_EQUAL_TO'
p232
S"<class 'gluon.validators.IS_EQUAL_TO'>"
p233
sS'embed64'
p234
S'<function embed64>'
p235
sS'IS_LIST_OF'
p236
S"<class 'gluon.validators.IS_LIST_OF'>"
p237
sS'INPUT'
p238
S"<class 'gluon.html.INPUT'>"
p239
sS'EMBED'
p240
S"<class 'gluon.html.EMBED'>"
p241
sS'_'
S'<function _>'
p242
sS'myconf'
p243
S"{'forms': {'formstyle': 'bootstrap3_inline', 'se...'you@gmail.com', 'server': 'smtp.gmail.com:587'}}"
p244
sS'H2'
p245
S"<class 'gluon.html.H2'>"
p246
sS'H3'
p247
S"<class 'gluon.html.H3'>"
p248
sS'AppConfig'
p249
S'<function AppConfig>'
p250
sS'H1'
p251
S"<class 'gluon.html.H1'>"
p252
sS'H6'
p253
S"<class 'gluon.html.H6'>"
p254
sS'H4'
p255
S"<class 'gluon.html.H4'>"
p256
sS'H5'
p257
S"<class 'gluon.html.H5'>"
p258
sS'UL'
p259
S"<class 'gluon.html.UL'>"
p260
sS'IS_UPPER'
p261
S"<class 'gluon.validators.IS_UPPER'>"
p262
sS'xmlescape'
p263
S'<function xmlescape>'
p264
sS'IS_TIME'
p265
S"<class 'gluon.validators.IS_TIME'>"
p266
sS'OPTION'
p267
S"<class 'gluon.html.OPTION'>"
p268
sS'TITLE'
p269
S"<class 'gluon.html.TITLE'>"
p270
sS'CRYPT'
p271
S"<class 'gluon.validators.CRYPT'>"
p272
sS'IS_EMPTY_OR'
p273
S"<class 'gluon.validators.IS_EMPTY_OR'>"
p274
sS'MARKMIN'
p275
S"<class 'gluon.html.MARKMIN'>"
p276
sS'__name__'
p277
S"'__restricted__'"
p278
sS'course_id'
p279
S"'570'"
p280
sS'STRONG'
p281
S"<class 'gluon.html.STRONG'>"
p282
sS'COL'
p283
S"<class 'gluon.html.COL'>"
p284
sS'mc1'
p285
S"'col-md-9'"
p286
sS'mc0'
p287
S"'col-md-12'"
p288
sS'rows'
p289
S'<Rows (0)>'
p290
sS'service'
p291
S'<gluon.tools.Service object>'
p292
sS'SCRIPT'
p293
S"<class 'gluon.html.SCRIPT'>"
p294
sS'TABLE'
p295
S"<class 'gluon.html.TABLE'>"
p296
sS'IS_IPV4'
p297
S"<class 'gluon.validators.IS_IPV4'>"
p298
sS'IS_LENGTH'
p299
S"<class 'gluon.validators.IS_LENGTH'>"
p300
sS'IS_IPV6'
p301
S"<class 'gluon.validators.IS_IPV6'>"
p302
sS'XML'
p303
S"<class 'gluon.html.XML'>"
p304
sS'B'
S"<class 'gluon.html.B'>"
p305
sS'IMG'
p306
S"<class 'gluon.html.IMG'>"
p307
sS'SQLTABLE'
p308
S"<class 'gluon.sqlhtml.SQLTABLE'>"
p309
sS'IS_MATCH'
p310
S"<class 'gluon.validators.IS_MATCH'>"
p311
sS'IS_ALPHANUMERIC'
p312
S"<class 'gluon.validators.IS_ALPHANUMERIC'>"
p313
sS'SPAN'
p314
S"<class 'gluon.html.SPAN'>"
p315
sS'IS_JSON'
p316
S"<class 'gluon.validators.IS_JSON'>"
p317
sS'IS_IPADDRESS'
p318
S"<class 'gluon.validators.IS_IPADDRESS'>"
p319
sS'IS_SLUG'
p320
S"<class 'gluon.validators.IS_SLUG'>"
p321
sS'BEAUTIFY'
p322
S"<class 'gluon.html.BEAUTIFY'>"
p323
sS'META'
p324
S"<class 'gluon.html.META'>"
p325
sS'BUTTON'
p326
S"<class 'gluon.html.BUTTON'>"
p327
sS'IS_DATE'
p328
S"<class 'gluon.validators.IS_DATE'>"
p329
sS'IS_EMAIL'
p330
S"<class 'gluon.validators.IS_EMAIL'>"
p331
sS'middle_column'
p332
S"'col-md-12'"
p333
sS'IS_NOT_EMPTY'
p334
S"<class 'gluon.validators.IS_NOT_EMPTY'>"
p335
sS'IS_FLOAT_IN_RANGE'
p336
S"<class 'gluon.validators.IS_FLOAT_IN_RANGE'>"
p337
sS'TBODY'
p338
S"<class 'gluon.html.TBODY'>"
p339
sS'CAT'
p340
S"<class 'gluon.html.CAT'>"
p341
sS'Field'
p342
S"<class 'pydal.objects.Field'>"
p343
sS'mc2'
p344
S"'col-md-6'"
p345
sS'IS_LIST_OF_EMAILS'
p346
S"<class 'gluon.validators.IS_LIST_OF_EMAILS'>"
p347
sS'DIV'
p348
S"<class 'gluon.html.DIV'>"
p349
sS'LEGEND'
p350
S"<class 'gluon.html.LEGEND'>"
p351
sS'COLGROUP'
p352
S"<class 'gluon.html.COLGROUP'>"
p353
sS'DAL'
p354
S"<class 'pydal.base.DAL'>"
p355
sS'ASSIGNJS'
p356
S'<function ASSIGNJS>'
p357
sS'TR'
p358
S"<class 'gluon.html.TR'>"
p359
sS'LI'
p360
S"<class 'gluon.html.LI'>"
p361
sS'right_sidebar_enabled'
p362
g149
sS'TH'
p363
S"<class 'gluon.html.TH'>"
p364
sS'TD'
p365
S"<class 'gluon.html.TD'>"
p366
sS'PluginManager'
p367
S"<class 'gluon.tools.PluginManager'>"
p368
sS'IS_URL'
p369
S"<class 'gluon.validators.IS_URL'>"
p370
sS'A'
S"<class 'gluon.html.A'>"
p371
sS'HEAD'
p372
S"<class 'gluon.html.HEAD'>"
p373
sS'IS_DATETIME_IN_RANGE'
p374
S"<class 'gluon.validators.IS_DATETIME_IN_RANGE'>"
p375
sS'FORM'
p376
S"<class 'gluon.html.FORM'>"
p377
sS'I'
S"<class 'gluon.html.I'>"
p378
sS'IS_NOT_IN_DB'
p379
S"<class 'gluon.validators.IS_NOT_IN_DB'>"
p380
sg123
S"<Storage {'body': <cStringIO.StringO object at 0...da> at 0x106e80b18>, 'view': 'course/main.html'}>"
p381
sS'THEAD'
p382
S"<class 'gluon.html.THEAD'>"
p383
sS'ANY_OF'
p384
S"<class 'gluon.validators.ANY_OF'>"
p385
sS'IS_NULL_OR'
p386
S"<class 'gluon.validators.IS_EMPTY_OR'>"
p387
sg56
S"<Storage {'_vars': None, 'function': 'main', 'co...SE/Sem1/SCE/Project/web2py/applications/edify/'}>"
p388
sS'IS_EXPR'
p389
S"<class 'gluon.validators.IS_EXPR'>"
p390
sS'T'
S'<gluon.languages.translator object>'
p391
sS'IS_IN_SET'
p392
S"<class 'gluon.validators.IS_IN_SET'>"
p393
sS'IS_UPLOAD_FILENAME'
p394
S"<class 'gluon.validators.IS_UPLOAD_FILENAME'>"
p395
sS'time'
p396
S"<module 'time' from '/anaconda/lib/python2.7/lib-dynload/time.so'>"
p397
sS'TT'
p398
S"<class 'gluon.html.TT'>"
p399
sS'IS_DECIMAL_IN_RANGE'
p400
S"<class 'gluon.validators.IS_DECIMAL_IN_RANGE'>"
p401
sssS'traceback'
p402
S'Traceback (most recent call last):\n  File "/Users/adityagaykar/Dropbox/Development/MtechCSE/Sem1/SCE/Project/web2py/gluon/restricted.py", line 227, in restricted\n    exec ccode in environment\n  File "/Users/adityagaykar/Dropbox/Development/MtechCSE/Sem1/SCE/Project/web2py/applications/edify/views/course/main.html", line 88, in <module>\nNameError: name \'message\' is not defined\n'
p403
s.