(dp1
S'output'
p2
S"<type 'exceptions.TypeError'> unsupported operand type(s) for &: 'str' and 'Field'"
p3
sS'layer'
p4
S'/Users/adityagaykar/Dropbox/Development/MtechCSE/Sem1/SCE/Project/web2py/applications/edify/controllers/default.py'
p5
sS'code'
p6
S'# -*- coding: utf-8 -*-\n# this file is released under public domain and you can use without limitations\n\n#########################################################################\n## This is a sample controller\n## - index is the default action of any application\n## - user is required for authentication and authorization\n## - download is for downloading files uploaded in the db (does streaming)\n#########################################################################\n\ndef index():\n    """\n    example action using the internationalization operator T and flash\n    rendered by views/default/index.html or views/generic.html\n\n    if you need a simple wiki simply replace the two lines below with:\n    return auth.wiki()\n    """\n    #response.flash = T("Hello World")\n    if auth.user :\n        redirect("home")\n    message="Welcome to Edify!"\n    return locals()#dict(message=T(\'Welcome to web2py!\'))\n\n@auth.requires_login()\ndef admin():\n    if auth.user.role != \'Admin\':\n        redirect("home")\n    user_table = None\n    course_table = None\n    verify_grid = None  \n    rows = None\n    if request.args(0) == "auth_user":\n        user_table = SQLFORM.smartgrid(db.auth_user)\n    elif request.args(0) == "course":\n        course_table = SQLFORM.smartgrid(db.course)\n    elif request.args(0) == "verify_faculty":\n        query = db.auth_user.admin_verified == \'no\' and db.auth_user.role == \'faculty\'       \n        #verify_grid = SQLFORM.smartgrid(db.auth_user, constraints = dict(auth_user=query))\n        rows = db(query).select()\n        if(len(rows) == 0):\n            verify_grid = 0\n        else:\n            verify_grid = len(rows)\n    return locals()\n\n@auth.requires_login()\ndef admin_verify():\n    if auth.user.role != \'Admin\' or request.args(0) == None:\n        redirect("home")\n    user1_id = request.args(0)\n    row = db(db.auth_user.id == user1_id).select()\n    if len(row) == 0:\n        response.flash = "Invalid user"\n    else :\n        db(db.auth_user.id == user1_id).update(admin_verified=\'yes\')\n        redirect("admin/verify_faculty");\n\n\n\n@auth.requires_login()\ndef home():\n    message = None\n    auth_error = None\n    rows = db(db.auth_user.admin_verified == \'no\' & db.auth_user.role == \'faculty\' & db.auth_user.id == auth.user.id).select()\n    if(len(rows) == 1):\n        auth_error = "You are still awaiting faculty status approval, contact admin for more details ";\n    else:\n        message = "Welcome, "+auth.user.first_name\n    return locals()\n\ndef user():\n    """\n    exposes:\n    http://..../[app]/default/user/login\n    http://..../[app]/default/user/logout\n    http://..../[app]/default/user/register\n    http://..../[app]/default/user/profile\n    http://..../[app]/default/user/retrieve_password\n    http://..../[app]/default/user/change_password\n    http://..../[app]/default/user/manage_users (requires membership in\n    http://..../[app]/default/user/bulk_register\n    use @auth.requires_login()\n        @auth.requires_membership(\'group name\')\n        @auth.requires_permission(\'read\',\'table name\',record_id)\n    to decorate functions that need access control\n    """\n    #if request.args(0) == \'register\':\n\n    return dict(form=auth())\n\n\n@cache.action()\ndef download():\n    """\n    allows downloading of uploaded files\n    http://..../[app]/default/download/[filename]\n    """\n    return response.download(request, db)\n\n\ndef call():\n    """\n    exposes services. for example:\n    http://..../[app]/default/call/jsonrpc\n    decorate with @services.jsonrpc the functions to expose\n    supports xml, json, xmlrpc, jsonrpc, amfrpc, rss, csv\n    """\n    return service()\n\n\n\nresponse._vars=response._caller(home)\n'
p7
sS'snapshot'
p8
(dp9
sS'traceback'
p10
S'Traceback (most recent call last):\n  File "/Users/adityagaykar/Dropbox/Development/MtechCSE/Sem1/SCE/Project/web2py/gluon/restricted.py", line 227, in restricted\n    exec ccode in environment\n  File "/Users/adityagaykar/Dropbox/Development/MtechCSE/Sem1/SCE/Project/web2py/applications/edify/controllers/default.py", line 113, in <module>\n  File "/Users/adityagaykar/Dropbox/Development/MtechCSE/Sem1/SCE/Project/web2py/gluon/globals.py", line 412, in <lambda>\n    self._caller = lambda f: f()\n  File "/Users/adityagaykar/Dropbox/Development/MtechCSE/Sem1/SCE/Project/web2py/gluon/tools.py", line 3774, in f\n    return action(*a, **b)\n  File "/Users/adityagaykar/Dropbox/Development/MtechCSE/Sem1/SCE/Project/web2py/applications/edify/controllers/default.py", line 65, in home\n    rows = db(db.auth_user.admin_verified == \'no\' & db.auth_user.role == \'faculty\' & db.auth_user.id == auth.user.id).select()\nTypeError: unsupported operand type(s) for &: \'str\' and \'Field\'\n'
p11
s.