(dp1
S'output'
p2
S"<type 'exceptions.AttributeError'> "
p3
sS'layer'
p4
S'/Users/adityagaykar/Dropbox/Development/MtechCSE/Sem1/SCE/Project/web2py/applications/edify/controllers/course.py'
p5
sS'code'
p6
S'import time\n\n@auth.requires_login()\ndef index():\n\t#list the courses available for current year for registration\n\tcourses = []\n\trows = db(db.course).select()\n\tfor row in rows:\n\t\tcourses.append([row.name, row.faculty.first_name + " " +  row.faculty.last_name, row.id])\n\treturn locals()\n\n@auth.requires_login()\ndef view():\n\tcourse_id = request.args(0)\n\trows = db(db.course.id ==course_id).select()\n\t#faculty = None\n\tif(len(rows) == 0):\n\t\tresponse.flash = "Invalid course"\n\telse:\n\t\tmessage = rows[0].name\n\t\tfaculty = rows[0].faculty.first_name + " " + rows[0].faculty.last_name\n\t\tcourse_description = rows[0].course_description\n\t\trows = db((db.course_registration.cid==course_id)&(db.course_registration.sid==auth.user.id)).select()\n\t\tif len(rows) == 0:\n\t\t\tregistered = 0\n\t\telse:\n\t\t\tregistered = 1\n\treturn locals()\n\n@auth.requires_login()\ndef register():\n\tcourse_id = request.args(0)\n\trows = db(db.course.id ==course_id).select()\n\t#faculty = None\n\tif(len(rows) == 0):\n\t\tresponse.flash = "Invalid course"\n\telse:\n\t\tdb.course_registration.insert(cid=course_id, sid=auth.user.id)\n\t\tmessage = rows[0].name\n\t\tfaculty = rows[0].faculty.first_name + " " + rows[0].faculty.last_name\n\t\tcourse_description = rows[0].course_description\n\t\tregistered = 0\n\t\tresponse.template = "view"\n\treturn locals()\n\t\t\ndef unregister():\n\tcourse_id = request.args(0)\n\trows = db(db.course.id ==course_id).select()\n\tif(len(rows) == 0):\n\t\tresponse.flash = "Invalid course"\n\telse:\n\t\tdb.course_registration.delete(cid=course_id, sid=auth.user.id)\n\t\tmessage = rows[0].name\n\t\tfaculty = rows[0].faculty.first_name + " " + rows[0].faculty.last_name\n\t\tcourse_description = rows[0].course_description\n\t\tregistered = 0\n\t\tresponse.template = "view"\n\t\t\n\treturn locals()\n\nresponse._vars=response._caller(unregister)\n'
p7
sS'snapshot'
p8
(dp9
sS'traceback'
p10
S'Traceback (most recent call last):\n  File "/Users/adityagaykar/Dropbox/Development/MtechCSE/Sem1/SCE/Project/web2py/gluon/restricted.py", line 227, in restricted\n    exec ccode in environment\n  File "/Users/adityagaykar/Dropbox/Development/MtechCSE/Sem1/SCE/Project/web2py/applications/edify/controllers/course.py", line 61, in <module>\n  File "/Users/adityagaykar/Dropbox/Development/MtechCSE/Sem1/SCE/Project/web2py/gluon/globals.py", line 412, in <lambda>\n    self._caller = lambda f: f()\n  File "/Users/adityagaykar/Dropbox/Development/MtechCSE/Sem1/SCE/Project/web2py/applications/edify/controllers/course.py", line 52, in unregister\n    db.course_registration.delete(cid=course_id, sid=auth.user.id)\n  File "/Users/adityagaykar/Dropbox/Development/MtechCSE/Sem1/SCE/Project/web2py/gluon/packages/dal/pydal/helpers/classes.py", line 30, in __getattr__\n    raise AttributeError\nAttributeError\n'
p11
s.